Microchip Technology Inc, vv3_31 (A) M

Tool Name:
  c:\program files (x86)\microchip\mplab c30\bin\bin\..\bin/pic30-coff-ld.exe

Command:
  -p33FJ128GP802 \
  -ovoter.cof \
  -Lc:/program files (x86)/microchip/mplab c30/bin/bin/.. \
  -Lc:/program files (x86)/microchip/mplab c30/bin/bin/../../lib \
  -Lc:/program files (x86)/microchip/mplab c30/bin/bin/../../lib/PIC24E \
  -Lc:/program files (x86)/microchip/mplab c30/bin/bin/../../support/PIC24E/gld \
  -Lc:/program files (x86)/microchip/mplab c30/bin/bin/../../lib/PIC24F \
  -Lc:/program files (x86)/microchip/mplab c30/bin/bin/../../support/PIC24F/gld \
  -Lc:/program files (x86)/microchip/mplab c30/bin/bin/../../lib/PIC24H \
  -Lc:/program files (x86)/microchip/mplab c30/bin/bin/../../support/PIC24H/gld \
  -Lc:/program files (x86)/microchip/mplab c30/bin/bin/../../lib/dsPIC30F \
  -Lc:/program files (x86)/microchip/mplab c30/bin/bin/../../support/dsPIC30F/gld \
  -Lc:/program files (x86)/microchip/mplab c30/bin/bin/../../lib/dsPIC33E \
  -Lc:/program files (x86)/microchip/mplab c30/bin/bin/../../support/dsPIC33E/gld \
  -Lc:/program files (x86)/microchip/mplab c30/bin/bin/../../lib/dsPIC33F \
  -Lc:/program files (x86)/microchip/mplab c30/bin/bin/../../support/dsPIC33F/gld \
  ARP.o \
  Delay.o \
  DHCP.o \
  DNS.o \
  ENC28J60.o \
  Helpers.o \
  IP.o \
  Random.o \
  SPIEEPROM.o \
  StackTsk.o \
  Tick.o \
  UART.o \
  UDP.o \
  squelch.o \
  Telnet.o \
  TCP.o \
  DynDNS.o \
  Voter.o \
  doubleify.o \
  ICMP.o \
  -Tp33FJ128GP802.gld.00 \
  --defsym=__MPLAB_BUILD=1 \
  -Map=voter.map \
  --report-mem \
  -start-group \
  --library=pic30-coff \
  --library=m-coff \
  --library=c-coff \
  -end-group \

Archive member included because of file (symbol)

c:/program files (x86)/microchip/mplab c30/bin/bin/../../lib\libpic30-coff.a(crt0_standard.o)
                              (_resetPRI)
c:/program files (x86)/microchip/mplab c30/bin/bin/../../lib\libpic30-coff.a(data_init_standard.o)
                              c:/program files (x86)/microchip/mplab c30/bin/bin/../../lib\libpic30-coff.a(crt0_standard.o) (_data_init_standard)
c:/program files (x86)/microchip/mplab c30/bin/bin/../../lib\libm-coff.a(divmoddi3.o)
                              Tick.o (__udivdi3)
c:/program files (x86)/microchip/mplab c30/bin/bin/../../lib\libm-coff.a(feqltle.o)
                              Voter.o (__eqsf2)
c:/program files (x86)/microchip/mplab c30/bin/bin/../../lib\libm-coff.a(divsf3.o)
                              Voter.o (__divsf3)
c:/program files (x86)/microchip/mplab c30/bin/bin/../../lib\libm-coff.a(floatsisf.o)
                              Voter.o (__floatsisf)
c:/program files (x86)/microchip/mplab c30/bin/bin/../../lib\libm-coff.a(addsf3.o)
                              Voter.o (__subsf3)
c:/program files (x86)/microchip/mplab c30/bin/bin/../../lib\libm-coff.a(mulsf3.o)
                              Voter.o (__mulsf3)
c:/program files (x86)/microchip/mplab c30/bin/bin/../../lib\libm-coff.a(sinf.o)
                              Voter.o (sinf)
c:/program files (x86)/microchip/mplab c30/bin/bin/../../lib\libm-coff.a(fixsfsi.o)
                              Voter.o (__fixsfsi)
c:/program files (x86)/microchip/mplab c30/bin/bin/../../lib\libm-coff.a(cosf.o)
                              Voter.o (cosf)
c:/program files (x86)/microchip/mplab c30/bin/bin/../../lib\libm-coff.a(udivsi3.o)
                              Voter.o (__udivsi3)
c:/program files (x86)/microchip/mplab c30/bin/bin/../../lib\libm-coff.a(divsi3.o)
                              Voter.o (__divsi3)
c:/program files (x86)/microchip/mplab c30/bin/bin/../../lib\libm-coff.a(errno.o)
                              Voter.o (errno)
c:/program files (x86)/microchip/mplab c30/bin/bin/../../lib\libm-coff.a(fgtge.o)
                              Voter.o (__gesf2)
c:/program files (x86)/microchip/mplab c30/bin/bin/../../lib\libm-coff.a(umodsi3.o)
                              Voter.o (__umodsi3)
c:/program files (x86)/microchip/mplab c30/bin/bin/../../lib\libm-coff.a(truncdfsf.o)
                              doubleify.o (__truncdfsf2)
c:/program files (x86)/microchip/mplab c30/bin/bin/../../lib\libm-coff.a(fcompare.o)
                              c:/program files (x86)/microchip/mplab c30/bin/bin/../../lib\libm-coff.a(feqltle.o) (_fcompare)
c:/program files (x86)/microchip/mplab c30/bin/bin/../../lib\libm-coff.a(funpack2.o)
                              c:/program files (x86)/microchip/mplab c30/bin/bin/../../lib\libm-coff.a(divsf3.o) (_funpack2)
c:/program files (x86)/microchip/mplab c30/bin/bin/../../lib\libm-coff.a(futil.o)
                              c:/program files (x86)/microchip/mplab c30/bin/bin/../../lib\libm-coff.a(divsf3.o) (_fPropagateNaN)
c:/program files (x86)/microchip/mplab c30/bin/bin/../../lib\libm-coff.a(fpack.o)
                              c:/program files (x86)/microchip/mplab c30/bin/bin/../../lib\libm-coff.a(divsf3.o) (_fpack)
c:/program files (x86)/microchip/mplab c30/bin/bin/../../lib\libm-coff.a(sincosf.o)
                              c:/program files (x86)/microchip/mplab c30/bin/bin/../../lib\libm-coff.a(sinf.o) (_sincosf)
c:/program files (x86)/microchip/mplab c30/bin/bin/../../lib\libm-coff.a(funpack.o)
                              c:/program files (x86)/microchip/mplab c30/bin/bin/../../lib\libm-coff.a(fixsfsi.o) (_funpack)
c:/program files (x86)/microchip/mplab c30/bin/bin/../../lib\libm-coff.a(dunpack.o)
                              c:/program files (x86)/microchip/mplab c30/bin/bin/../../lib\libm-coff.a(truncdfsf.o) (_dunpack)
c:/program files (x86)/microchip/mplab c30/bin/bin/../../lib\libm-coff.a(dunpack2.o)
                              c:/program files (x86)/microchip/mplab c30/bin/bin/../../lib\libm-coff.a(truncdfsf.o) (_dunpack2exit)
c:/program files (x86)/microchip/mplab c30/bin/bin/../../lib\libm-coff.a(fmodf.o)
                              c:/program files (x86)/microchip/mplab c30/bin/bin/../../lib\libm-coff.a(sincosf.o) (fmodf)
c:/program files (x86)/microchip/mplab c30/bin/bin/../../lib\libm-coff.a(dpropagateNaN.o)
                              c:/program files (x86)/microchip/mplab c30/bin/bin/../../lib\libm-coff.a(dunpack2.o) (_dPropagateNaN)
c:/program files (x86)/microchip/mplab c30/bin/bin/../../lib\libm-coff.a(fmodrem.o)
                              c:/program files (x86)/microchip/mplab c30/bin/bin/../../lib\libm-coff.a(fmodf.o) (_fmodrem)
c:/program files (x86)/microchip/mplab c30/bin/bin/../../lib\libc-coff.a(memset.XXo)
                              DHCP.o (memset)
c:/program files (x86)/microchip/mplab c30/bin/bin/../../lib\libc-coff.a(strlen.XXo)
                              UDP.o (strlen)
c:/program files (x86)/microchip/mplab c30/bin/bin/../../lib\libc-coff.a(sprintf_cdnopsuxX.XXo)
                              Telnet.o (_sprintf_cdnopsuxX)
c:/program files (x86)/microchip/mplab c30/bin/bin/../../lib\libc-coff.a(memcpy.XXo)
                              TCP.o (memcpy)
c:/program files (x86)/microchip/mplab c30/bin/bin/../../lib\libc-coff.a(strcmp.XXo)
                              DynDNS.o (strcmp)
c:/program files (x86)/microchip/mplab c30/bin/bin/../../lib\libc-coff.a(ctime.XXo)
                              Voter.o (gmtime)
c:/program files (x86)/microchip/mplab c30/bin/bin/../../lib\libc-coff.a(strftime.XXo)
                              Voter.o (strftime)
c:/program files (x86)/microchip/mplab c30/bin/bin/../../lib\libc-coff.a(sprintf_cdnopuxX.XXo)
                              Voter.o (_sprintf_cdnopuxX)
c:/program files (x86)/microchip/mplab c30/bin/bin/../../lib\libc-coff.a(strcpy.XXo)
                              Voter.o (strcpy)
c:/program files (x86)/microchip/mplab c30/bin/bin/../../lib\libc-coff.a(memcmp.XXo)
                              Voter.o (memcmp)
c:/program files (x86)/microchip/mplab c30/bin/bin/../../lib\libc-coff.a(printf.XXo)
                              Voter.o (printf)
c:/program files (x86)/microchip/mplab c30/bin/bin/../../lib\libc-coff.a(puts.XXo)
                              Voter.o (puts)
c:/program files (x86)/microchip/mplab c30/bin/bin/../../lib\libc-coff.a(strstr.XXo)
                              Voter.o (strstr)
c:/program files (x86)/microchip/mplab c30/bin/bin/../../lib\libc-coff.a(atoi.XXo)
                              Voter.o (atoi)
c:/program files (x86)/microchip/mplab c30/bin/bin/../../lib\libc-coff.a(mktime.XXo)
                              Voter.o (mktime)
c:/program files (x86)/microchip/mplab c30/bin/bin/../../lib\libc-coff.a(strncpy.XXo)
                              Voter.o (strncpy)
c:/program files (x86)/microchip/mplab c30/bin/bin/../../lib\libc-coff.a(sprintf_cdfFnopuxX.XXo)
                              Voter.o (_sprintf_cdfFnopuxX)
c:/program files (x86)/microchip/mplab c30/bin/bin/../../lib\libc-coff.a(_iob.XXo)
                              Voter.o (_iob)
c:/program files (x86)/microchip/mplab c30/bin/bin/../../lib\libc-coff.a(fputc.XXo)
                              Voter.o (fputc)
c:/program files (x86)/microchip/mplab c30/bin/bin/../../lib\libc-coff.a(fflush.XXo)
                              Voter.o (fflush)
c:/program files (x86)/microchip/mplab c30/bin/bin/../../lib\libc-coff.a(strchr.XXo)
                              Voter.o (strchr)
c:/program files (x86)/microchip/mplab c30/bin/bin/../../lib\libc-coff.a(sscanf_cdnopuxX.XXo)
                              Voter.o (_sscanf_cdnopuxX)
c:/program files (x86)/microchip/mplab c30/bin/bin/../../lib\libc-coff.a(atof.XXo)
                              Voter.o (atof)
c:/program files (x86)/microchip/mplab c30/bin/bin/../../lib\libc-coff.a(sprintf_cdfFnopsuxX.XXo)
                              (_sprintf_cdfFnopsuxX)
c:/program files (x86)/microchip/mplab c30/bin/bin/../../lib\libc-coff.a(doprnt_cdnopsuxX.XXo)
                              c:/program files (x86)/microchip/mplab c30/bin/bin/../../lib\libc-coff.a(sprintf_cdnopsuxX.XXo) (_vfprintf_cdnopsuxX)
c:/program files (x86)/microchip/mplab c30/bin/bin/../../lib\libc-coff.a(doprnt_cdnopuxX.XXo)
                              c:/program files (x86)/microchip/mplab c30/bin/bin/../../lib\libc-coff.a(sprintf_cdnopuxX.XXo) (_vfprintf_cdnopuxX)
c:/program files (x86)/microchip/mplab c30/bin/bin/../../lib\libc-coff.a(doprnt.XXo)
                              c:/program files (x86)/microchip/mplab c30/bin/bin/../../lib\libc-coff.a(printf.XXo) (vfprintf)
c:/program files (x86)/microchip/mplab c30/bin/bin/../../lib\libc-coff.a(strncmp.XXo)
                              c:/program files (x86)/microchip/mplab c30/bin/bin/../../lib\libc-coff.a(strstr.XXo) (strncmp)
c:/program files (x86)/microchip/mplab c30/bin/bin/../../lib\libc-coff.a(doprnt_cdfFnopuxX.XXo)
                              c:/program files (x86)/microchip/mplab c30/bin/bin/../../lib\libc-coff.a(sprintf_cdfFnopuxX.XXo) (_vfprintf_cdfFnopuxX)
c:/program files (x86)/microchip/mplab c30/bin/bin/../../lib\libc-coff.a(flsbuf.XXo)
                              c:/program files (x86)/microchip/mplab c30/bin/bin/../../lib\libc-coff.a(fputc.XXo) (_flsbuf)
c:/program files (x86)/microchip/mplab c30/bin/bin/../../lib\libc-coff.a(doscan_cdnopuxX.XXo)
                              c:/program files (x86)/microchip/mplab c30/bin/bin/../../lib\libc-coff.a(sscanf_cdnopuxX.XXo) (_vfscanf_cdnopuxX)
c:/program files (x86)/microchip/mplab c30/bin/bin/../../lib\libc-coff.a(isspace.XXo)
                              c:/program files (x86)/microchip/mplab c30/bin/bin/../../lib\libc-coff.a(atof.XXo) (isspace)
c:/program files (x86)/microchip/mplab c30/bin/bin/../../lib\libc-coff.a(doprnt_cdfFnopsuxX.XXo)
                              c:/program files (x86)/microchip/mplab c30/bin/bin/../../lib\libc-coff.a(sprintf_cdfFnopsuxX.XXo) (_vfprintf_cdfFnopsuxX)
c:/program files (x86)/microchip/mplab c30/bin/bin/../../lib\libc-coff.a(powers.XXo)
                              c:/program files (x86)/microchip/mplab c30/bin/bin/../../lib\libc-coff.a(doprnt.XXo) (_npowers_)
c:/program files (x86)/microchip/mplab c30/bin/bin/../../lib\libc-coff.a(isupper.XXo)
                              c:/program files (x86)/microchip/mplab c30/bin/bin/../../lib\libc-coff.a(doscan_cdnopuxX.XXo) (isupper)
c:/program files (x86)/microchip/mplab c30/bin/bin/../../lib\libc-coff.a(tolower.XXo)
                              c:/program files (x86)/microchip/mplab c30/bin/bin/../../lib\libc-coff.a(doscan_cdnopuxX.XXo) (tolower)
c:/program files (x86)/microchip/mplab c30/bin/bin/../../lib\libc-coff.a(isalpha.XXo)
                              c:/program files (x86)/microchip/mplab c30/bin/bin/../../lib\libc-coff.a(doscan_cdnopuxX.XXo) (isalpha)
c:/program files (x86)/microchip/mplab c30/bin/bin/../../lib\libc-coff.a(fgetc.XXo)
                              c:/program files (x86)/microchip/mplab c30/bin/bin/../../lib\libc-coff.a(doscan_cdnopuxX.XXo) (fgetc)
c:/program files (x86)/microchip/mplab c30/bin/bin/../../lib\libc-coff.a(ungetc.XXo)
                              c:/program files (x86)/microchip/mplab c30/bin/bin/../../lib\libc-coff.a(doscan_cdnopuxX.XXo) (ungetc)
c:/program files (x86)/microchip/mplab c30/bin/bin/../../lib\libc-coff.a(filbuf.XXo)
                              c:/program files (x86)/microchip/mplab c30/bin/bin/../../lib\libc-coff.a(fgetc.XXo) (_filbuf)
c:/program files (x86)/microchip/mplab c30/bin/bin/../../lib\libm-coff.a(modsi3.o)
                              c:/program files (x86)/microchip/mplab c30/bin/bin/../../lib\libc-coff.a(ctime.XXo) (__modsi3)
c:/program files (x86)/microchip/mplab c30/bin/bin/../../lib\libm-coff.a(mulsi3.o)
                              c:/program files (x86)/microchip/mplab c30/bin/bin/../../lib\libc-coff.a(mktime.XXo) (__mulsi3)
c:/program files (x86)/microchip/mplab c30/bin/bin/../../lib\libm-coff.a(muldf3.o)
                              c:/program files (x86)/microchip/mplab c30/bin/bin/../../lib\libc-coff.a(doprnt.XXo) (__muldf3)
c:/program files (x86)/microchip/mplab c30/bin/bin/../../lib\libm-coff.a(extendsfdf.o)
                              c:/program files (x86)/microchip/mplab c30/bin/bin/../../lib\libc-coff.a(doprnt.XXo) (__extendsfdf2)
c:/program files (x86)/microchip/mplab c30/bin/bin/../../lib\libm-coff.a(deqltle.o)
                              c:/program files (x86)/microchip/mplab c30/bin/bin/../../lib\libc-coff.a(doprnt.XXo) (__ltdf2)
c:/program files (x86)/microchip/mplab c30/bin/bin/../../lib\libm-coff.a(dne.o)
                              c:/program files (x86)/microchip/mplab c30/bin/bin/../../lib\libc-coff.a(doprnt.XXo) (__nedf2)
c:/program files (x86)/microchip/mplab c30/bin/bin/../../lib\libm-coff.a(frexpf.o)
                              c:/program files (x86)/microchip/mplab c30/bin/bin/../../lib\libc-coff.a(doprnt.XXo) (frexpf)
c:/program files (x86)/microchip/mplab c30/bin/bin/../../lib\libm-coff.a(dgtge.o)
                              c:/program files (x86)/microchip/mplab c30/bin/bin/../../lib\libc-coff.a(doprnt.XXo) (__gedf2)
c:/program files (x86)/microchip/mplab c30/bin/bin/../../lib\libm-coff.a(divdf3.o)
                              c:/program files (x86)/microchip/mplab c30/bin/bin/../../lib\libc-coff.a(doprnt.XXo) (__divdf3)
c:/program files (x86)/microchip/mplab c30/bin/bin/../../lib\libm-coff.a(fixunsdfsi.o)
                              c:/program files (x86)/microchip/mplab c30/bin/bin/../../lib\libc-coff.a(doprnt.XXo) (__fixunsdfsi)
c:/program files (x86)/microchip/mplab c30/bin/bin/../../lib\libm-coff.a(floatsidf.o)
                              c:/program files (x86)/microchip/mplab c30/bin/bin/../../lib\libc-coff.a(doprnt.XXo) (__floatsidf)
c:/program files (x86)/microchip/mplab c30/bin/bin/../../lib\libm-coff.a(adddf3.o)
                              c:/program files (x86)/microchip/mplab c30/bin/bin/../../lib\libc-coff.a(doprnt.XXo) (__adddf3)
c:/program files (x86)/microchip/mplab c30/bin/bin/../../lib\libm-coff.a(subdf3.o)
                              c:/program files (x86)/microchip/mplab c30/bin/bin/../../lib\libc-coff.a(doprnt.XXo) (__subdf3)
c:/program files (x86)/microchip/mplab c30/bin/bin/../../lib\libm-coff.a(fixunsdfdi.o)
                              c:/program files (x86)/microchip/mplab c30/bin/bin/../../lib\libc-coff.a(doprnt.XXo) (__fixunsdfdi)
c:/program files (x86)/microchip/mplab c30/bin/bin/../../lib\libm-coff.a(floatdidf.o)
                              c:/program files (x86)/microchip/mplab c30/bin/bin/../../lib\libc-coff.a(doprnt.XXo) (__floatdidf)
c:/program files (x86)/microchip/mplab c30/bin/bin/../../lib\libm-coff.a(dpack.o)
                              c:/program files (x86)/microchip/mplab c30/bin/bin/../../lib\libm-coff.a(muldf3.o) (_dpack)
c:/program files (x86)/microchip/mplab c30/bin/bin/../../lib\libm-coff.a(dcompare.o)
                              c:/program files (x86)/microchip/mplab c30/bin/bin/../../lib\libm-coff.a(deqltle.o) (_dcompare)
c:/program files (x86)/microchip/mplab c30/bin/bin/../../lib\libm-coff.a(_frexpf.o)
                              c:/program files (x86)/microchip/mplab c30/bin/bin/../../lib\libm-coff.a(frexpf.o) (_frexpf)
c:/program files (x86)/microchip/mplab c30/bin/bin/../../lib\libm-coff.a(dtype.o)
                              c:/program files (x86)/microchip/mplab c30/bin/bin/../../lib\libm-coff.a(dcompare.o) (_dtype)


Selected CodeGuard Options:
  FGS:GWRP:OFF
  FGS:GSS:OFF

CodeGuard FLASH Memory:
  boot    (none)
  secure  (none)
  general 0x3400 to 0x157fe

CodeGuard RAM Memory:
  general 0x800 to 0x47ff
  secure  (none)
  boot    (none)


Program Memory  [Origin = 0x3400, Length = 0x12400]

section                    address   length (PC units)   length (bytes) (dec)
-------                    -------   -----------------   --------------------
.text                       0x3400              0x3848          0x546c  (21612)
.text                       0x6c48              0x9e94          0xedde  (60894)
.dinit                     0x10adc               0x440           0x660  (1632)
.text                      0x10f1c              0x130e          0x1c95  (7317)
.const                     0x123b0              0x3450          0x4e78  (20088)

                     Total program memory used (bytes):        0x1b3b7  (111543) 99%


Data Memory  [Origin = 0x800, Length = 0x4000]

section                    address      alignment gaps    total length  (dec)
-------                    -------      --------------    -------------------
.nbss                        0x800                   0             0x2  (2)
.bss                         0x802                   0          0x252a  (9514)
.data                       0x2d2c                   0           0x160  (352)
.dconst                     0x2e8c                   0           0x118  (280)
.bss                        0x2fa4                   0            0xca  (202)
.data                       0x306e                   0           0x140  (320)
.bss                        0x31ae                   0           0x102  (258)
.data                       0x32b0                   0            0x5a  (90)
.dconst                     0x330a                   0            0x3c  (60)
.bss                        0x3346                   0            0xa2  (162)
.dconst                     0x33e8                   0            0x54  (84)
.bss                        0x343c                   0            0x4e  (78)
.data                       0x348a                   0            0x42  (66)
.bss                        0x34cc                   0            0x6a  (106)
.data                       0x3536                   0             0xc  (12)
.bss                        0x3542                   0            0x18  (24)
.data                       0x355a                   0             0x8  (8)
.bss                        0x3562                   0             0x4  (4)
.data                       0x3566                   0             0x2  (2)
.pbss                       0x3568                   0             0x2  (2)
.data                       0x356a                   0             0x2  (2)
.pbss                       0x356c                   0             0x2  (2)
.data                       0x356e                   0             0x2  (2)
.pbss                       0x3570                   0             0x2  (2)
.bss                        0x3572                   0             0x2  (2)

                        Total data memory used (bytes):         0x2d74  (11636) 71%


Dynamic Memory Usage

region                     address                      maximum length  (dec)
------                     -------                      ---------------------
heap                             0                                   0  (0)
stack                       0x3574                              0x128c  (4748)

                        Maximum dynamic memory (bytes):         0x128c  (4748)


External Symbols in Data Memory (by address):

                    0x084e                  _IOExpOutB
                    0x084f                  _IOExpOutA
                    0x0850                  _myDHCPBindCount
                    0x0852                  _altchange1
                    0x0854                  _altchange
                    0x0856                  _alttimer
                    0x0858                  _altconnected
                    0x085a                  _lastalthost
                    0x085c                  _althost
                    0x085e                  _altdns
                    0x0860                  _hosttimedout
                    0x0862                  _tone_fac
                    0x0866                  _tone_v3
                    0x086a                  _tone_v2
                    0x086e                  _tone_v1
                    0x0872                  _txaudio
                    0x2172                  _cmdstr
                    0x21a4                  _challenge
                    0x21ae                  _their_challenge
                    0x21b8                  _needburp
                    0x21ba                  _repeatit
                    0x21bc                  _dsecondtimer
                    0x21be                  _hangtimer
                    0x21c0                  _failtimer
                    0x21c2                  _connfail
                    0x21c4                  _connrep
                    0x21c6                  _cwtimer1
                    0x21c8                  _cwidx
                    0x21ca                  _cwptr
                    0x21cc                  _cwdat
                    0x21cd                  _cwlen
                    0x21ce                  _linkstate
                    0x21d0                  _termbuftimer
                    0x21d2                  _termbufidx
                    0x21d4                  _telnet_echo
                    0x21d6                  _gotbadmix
                    0x21d8                  _netisup
                    0x21da                  _apeaks
                    0x223e                  _diag_option_flags
                    0x2240                  _measstr
                    0x2242                  _measidx
                    0x2244                  _measp
                    0x2246                  _errcnt
                    0x2247                  _measretstate
                    0x2248                  _diagstate
                    0x2249                  _leddiag
                    0x224a                  _indiag
                    0x224c                  _testp
                    0x224e                  _testidx
                    0x2250                  _elketimer
                    0x2254                  _txseqno
                    0x2258                  _txseqno_ptt
                    0x225c                  _host_txseqno
                    0x2260                  _time_filled
                    0x2262                  _dec_index
                    0x2264                  _dec_valprev
                    0x2266                  _dec_buffer
                    0x23a6                  _enc_lastdelta
                    0x23a7                  _enc_prev_index
                    0x23a8                  _enc_prev_valprev
                    0x23aa                  _enc_index
                    0x23ac                  _enc_valprev
                    0x23ae                  _indipsw
                    0x23b0                  _indisplay
                    0x23b2                  _apeak
                    0x23b4                  _amin
                    0x23b6                  _amax
                    0x23b8                  _discounteru
                    0x23bc                  _discounterl
                    0x23c0                  _discfactor
                    0x23c4                  _altdnsnotify
                    0x23c5                  _dnsnotify
                    0x23c6                  _sendgps
                    0x23c8                  _mydigest
                    0x23cc                  _resp_digest
                    0x23d0                  _digest
                    0x23d4                  _last_samplecnt
                    0x23d6                  _real_time
                    0x23da                  _last_index1
                    0x23dc                  _last_index
                    0x23de                  _last_adcsample
                    0x23e0                  _samplecnt
                    0x23e2                  _next_index
                    0x23e6                  _next_time
                    0x23ea                  _timing_index
                    0x23ec                  _timing_time
                    0x23f0                  _dnsdone
                    0x23f2                  _dnstimer
                    0x23f4                  _CurVoterAddr
                    0x23f8                  _LastAltVoterAddr
                    0x23fc                  _MyAltVoterAddr
                    0x2400                  _LastVoterAddr
                    0x2404                  _MyVoterAddr
                    0x2408                  _inread
                    0x240a                  _aborted
                    0x240c                  _dwLastIP
                    0x2410                  _udpServerNode
                    0x241a                  _udpSocketUser
                    0x241c                  _ppswarn
                    0x241e                  _gpswarn
                    0x2420                  _cwtimer
                    0x2422                  _lastrxtimer
                    0x2426                  _attempttimer
                    0x2428                  _gpsforcetimer
                    0x242a                  _ppstimer
                    0x242c                  _gpstimer
                    0x2430                  _host_ptt
                    0x2432                  _ptt
                    0x2434                  _lastrxtime
                    0x243c                  _last_drainindex
                    0x243e                  _txdrainindex
                    0x2440                  _option_flags
                    0x2442                  _lastcor
                    0x2444                  _wascor
                    0x2446                  _lastvnoise32
                    0x2452                  _vnoise32
                    0x2456                  _sql2
                    0x2458                  _sqlcount
                    0x2459                  _adcindex
                    0x245a                  _adcothers
                    0x2460                  _adcother
                    0x2462                  _lockcnt
                    0x2464                  _last_interval
                    0x2468                  _ppscount
                    0x246a                  _gps_time
                    0x246e                  _gotpps
                    0x2470                  _gpssync
                    0x2472                  _gps_nsat
                    0x2473                  _gps_state
                    0x2474                  _TSIPwasdle
                    0x2475                  _gps_bufindex
                    0x2476                  _gps_buf
                    0x2516                  _rssiheld
                    0x2517                  _rssi
                    0x2518                  _connected
                    0x251a                  _audio_buf
                    0x2660                  _filled
                    0x2662                  _fillindex
                    0x2664                  _filling_buffer
                    0x2666                  _aliveCntrDec
                    0x2668                  _aliveCntrMain
                    0x2669                  _inputs2
                    0x266a                  _inputs1
                    0x266c                  _portasave
                    0x266e                  _AN0String
                    0x2676                  _AppConfig
                    0x282c                  _system_time
                    0x2834                  _dummy_loc
                    0x2d2c                  __npowers_
                    0x2ddc                  __powers_
                    0x31ae                  _UDPRxCount
                    0x31b0                  _UDPTxCount
                    0x31b2                  _activeUDPSocket
                    0x31b4                  _UDPSocketInfo
                    0x3248                  _TelnetState
                    0x3364                  _DDNSClient
                    0x3380                  _caldiode
                    0x3382                  _noise_gain
                    0x3384                  _write_eeprom_cali
                    0x3386                  _sqled
                    0x3388                  _cor
                    0x33e6                  _time_zone
                    0x348a                  __Files
                    0x348c                  __iob
                    0x352a                  _remoteNode
                    0x3536                  _moninit
                    0x3554                  __sobuf
                    0x3556                  __sibuf
                    0x3558                  __outdone
                    0x3566                  _DHCPClientInitializedOnce

External Symbols in Data Memory (by name):

                    0x266e                  _AN0String
                    0x2676                  _AppConfig
                    0x23f4                  _CurVoterAddr
                    0x3364                  _DDNSClient
                    0x3566                  _DHCPClientInitializedOnce
                    0x084f                  _IOExpOutA
                    0x084e                  _IOExpOutB
                    0x23f8                  _LastAltVoterAddr
                    0x2400                  _LastVoterAddr
                    0x23fc                  _MyAltVoterAddr
                    0x2404                  _MyVoterAddr
                    0x2474                  _TSIPwasdle
                    0x3248                  _TelnetState
                    0x31ae                  _UDPRxCount
                    0x31b4                  _UDPSocketInfo
                    0x31b0                  _UDPTxCount
                    0x348a                  __Files
                    0x348c                  __iob
                    0x2d2c                  __npowers_
                    0x3558                  __outdone
                    0x2ddc                  __powers_
                    0x3556                  __sibuf
                    0x3554                  __sobuf
                    0x240a                  _aborted
                    0x31b2                  _activeUDPSocket
                    0x2459                  _adcindex
                    0x2460                  _adcother
                    0x245a                  _adcothers
                    0x2666                  _aliveCntrDec
                    0x2668                  _aliveCntrMain
                    0x0854                  _altchange
                    0x0852                  _altchange1
                    0x0858                  _altconnected
                    0x085e                  _altdns
                    0x23c4                  _altdnsnotify
                    0x085c                  _althost
                    0x0856                  _alttimer
                    0x23b6                  _amax
                    0x23b4                  _amin
                    0x23b2                  _apeak
                    0x21da                  _apeaks
                    0x2426                  _attempttimer
                    0x251a                  _audio_buf
                    0x3380                  _caldiode
                    0x21a4                  _challenge
                    0x2172                  _cmdstr
                    0x2518                  _connected
                    0x21c2                  _connfail
                    0x21c4                  _connrep
                    0x3388                  _cor
                    0x21cc                  _cwdat
                    0x21c8                  _cwidx
                    0x21cd                  _cwlen
                    0x21ca                  _cwptr
                    0x2420                  _cwtimer
                    0x21c6                  _cwtimer1
                    0x2266                  _dec_buffer
                    0x2262                  _dec_index
                    0x2264                  _dec_valprev
                    0x223e                  _diag_option_flags
                    0x2248                  _diagstate
                    0x23d0                  _digest
                    0x23c0                  _discfactor
                    0x23bc                  _discounterl
                    0x23b8                  _discounteru
                    0x23f0                  _dnsdone
                    0x23c5                  _dnsnotify
                    0x23f2                  _dnstimer
                    0x21bc                  _dsecondtimer
                    0x2834                  _dummy_loc
                    0x240c                  _dwLastIP
                    0x2250                  _elketimer
                    0x23aa                  _enc_index
                    0x23a6                  _enc_lastdelta
                    0x23a7                  _enc_prev_index
                    0x23a8                  _enc_prev_valprev
                    0x23ac                  _enc_valprev
                    0x2246                  _errcnt
                    0x21c0                  _failtimer
                    0x2660                  _filled
                    0x2662                  _fillindex
                    0x2664                  _filling_buffer
                    0x21d6                  _gotbadmix
                    0x246e                  _gotpps
                    0x2476                  _gps_buf
                    0x2475                  _gps_bufindex
                    0x2472                  _gps_nsat
                    0x2473                  _gps_state
                    0x246a                  _gps_time
                    0x2428                  _gpsforcetimer
                    0x2470                  _gpssync
                    0x242c                  _gpstimer
                    0x241e                  _gpswarn
                    0x21be                  _hangtimer
                    0x2430                  _host_ptt
                    0x225c                  _host_txseqno
                    0x0860                  _hosttimedout
                    0x224a                  _indiag
                    0x23ae                  _indipsw
                    0x23b0                  _indisplay
                    0x266a                  _inputs1
                    0x2669                  _inputs2
                    0x2408                  _inread
                    0x23de                  _last_adcsample
                    0x243c                  _last_drainindex
                    0x23dc                  _last_index
                    0x23da                  _last_index1
                    0x2464                  _last_interval
                    0x23d4                  _last_samplecnt
                    0x085a                  _lastalthost
                    0x2442                  _lastcor
                    0x2434                  _lastrxtime
                    0x2422                  _lastrxtimer
                    0x2446                  _lastvnoise32
                    0x2249                  _leddiag
                    0x21ce                  _linkstate
                    0x2462                  _lockcnt
                    0x2242                  _measidx
                    0x2244                  _measp
                    0x2247                  _measretstate
                    0x2240                  _measstr
                    0x3536                  _moninit
                    0x0850                  _myDHCPBindCount
                    0x23c8                  _mydigest
                    0x21b8                  _needburp
                    0x21d8                  _netisup
                    0x23e2                  _next_index
                    0x23e6                  _next_time
                    0x3382                  _noise_gain
                    0x2440                  _option_flags
                    0x266c                  _portasave
                    0x2468                  _ppscount
                    0x242a                  _ppstimer
                    0x241c                  _ppswarn
                    0x2432                  _ptt
                    0x23d6                  _real_time
                    0x352a                  _remoteNode
                    0x21ba                  _repeatit
                    0x23cc                  _resp_digest
                    0x2517                  _rssi
                    0x2516                  _rssiheld
                    0x23e0                  _samplecnt
                    0x23c6                  _sendgps
                    0x2456                  _sql2
                    0x2458                  _sqlcount
                    0x3386                  _sqled
                    0x282c                  _system_time
                    0x21d4                  _telnet_echo
                    0x21d2                  _termbufidx
                    0x21d0                  _termbuftimer
                    0x224e                  _testidx
                    0x224c                  _testp
                    0x21ae                  _their_challenge
                    0x2260                  _time_filled
                    0x33e6                  _time_zone
                    0x23ea                  _timing_index
                    0x23ec                  _timing_time
                    0x0862                  _tone_fac
                    0x086e                  _tone_v1
                    0x086a                  _tone_v2
                    0x0866                  _tone_v3
                    0x0872                  _txaudio
                    0x243e                  _txdrainindex
                    0x2254                  _txseqno
                    0x2258                  _txseqno_ptt
                    0x2410                  _udpServerNode
                    0x241a                  _udpSocketUser
                    0x2452                  _vnoise32
                    0x2444                  _wascor
                    0x3384                  _write_eeprom_cali

External Symbols in Program Memory (by address):

                  0x003400                  __resetPRI
                  0x003422                  __psv_init
                  0x003432                  __data_init_standard
                  0x003432                  __data_init
                  0x003490                  _isspace
                  0x0034a0                  _isupper
                  0x0034ac                  _tolower
                  0x0034ba                  _isalpha
                  0x0034ce                  ___mulp32peds3
                  0x0034ce                  ___mulp32eds3
                  0x0034ce                  ___mulsi3
                  0x003500                  ___udivmoddi3
                  0x0035ce                  ___udivdi3
                  0x0035dc                  ___umoddi3
                  0x0035e4                  ___divdi3
                  0x00361e                  ___moddi3
                  0x0036f0                  ___lesf2
                  0x0036f0                  ___eqsf2
                  0x0036f0                  ___ltsf2
                  0x0036f4                  ___divsf3
                  0x003778                  ___floatsisf
                  0x0037ce                  ___subsf3
                  0x0037d0                  ___addsf3
                  0x00388a                  ___mulsf3
                  0x0038f2                  _sinf
                  0x0038f6                  ___fixsfsi
                  0x003938                  _cosf
                  0x00393c                  ___udivsi3
                  0x00395c                  ___divsi3
                  0x00397a                  ___gesf2
                  0x00397a                  ___gtsf2
                  0x00397e                  ___umodsi3
                  0x003984                  ___truncdfsf2
                  0x0039da                  __fcompare
                  0x003a10                  __funpack2
                  0x003a20                  __fPropagateNaN
                  0x003a32                  __fbopExit
                  0x003a3a                  __fbopReturnNaN
                  0x003a40                  __fpack
                  0x003a8c                  __sincosf
                  0x003b5e                  __funpack
                  0x003b88                  __dunpack
                  0x003bd6                  __dunpack2
                  0x003bf8                  __dreturnNaN
                  0x003bfe                  __dunpack2exit
                  0x003c08                  _fmodf
                  0x003c0c                  __dPropagateNaN
                  0x003c28                  __fmodrem
                  0x003cc6                  ___modsi3
                  0x003ce4                  ___muldf3
                  0x003dce                  ___extendsfdf2
                  0x003e0c                  ___ledf2
                  0x003e0c                  ___ltdf2
                  0x003e0c                  ___eqdf2
                  0x003e16                  ___nedf2
                  0x003e20                  _frexpf
                  0x003e26                  ___gtdf2
                  0x003e26                  ___gedf2
                  0x003e30                  ___divdf3
                  0x003ee4                  ___fixunsdfsi
                  0x003f30                  ___floatsidf
                  0x003f36                  ___adddf3
                  0x004030                  ___subdf3
                  0x004034                  ___fixunsdfdi
                  0x004096                  ___floatdidf
                  0x004104                  __dpack
                  0x00415c                  __dcompare
                  0x0041ae                  __frexpf
                  0x0041c8                  __dtype
                  0x0041ec                  _memset
                  0x0041fa                  _strlen
                  0x004206                  _memcpy
                  0x004214                  _strcmp
                  0x004270                  _gmtime
                  0x00431a                  _localtime
                  0x004332                  _asctime
                  0x0043c4                  _ctime
                  0x00444c                  _strftime
                  0x0046a2                  _strcpy
                  0x0046b2                  _memcmp
                  0x0046e6                  _printf
                  0x0046f4                  _fputs
                  0x004712                  _puts
                  0x004726                  _strstr
                  0x004754                  _atoi
                  0x004816                  _mktime
                  0x00489e                  _strncpy
                  0x00495a                  _fflush
                  0x0049ae                  _strchr
                  0x0049be                  __sscanf_cdnopuxX
                  0x0049da                  _strtod
                  0x004bbe                  _atof
                  0x004bc2                  __sprintf_cdnopsuxX
                  0x004bc2                  __sprintf_cdfFnopuxX
                  0x004bc2                  __sprintf_cdfFnopsuxX
                  0x004bc2                  __sprintf_cdnopuxX
                  0x004d42                  _vfprintf
                  0x005d1e                  _strncmp
                  0x005e1e                  __vfscanf_cdnopuxX
                  0x00610e                  __vfprintf_cdnopsuxX
                  0x00610e                  __vfprintf_cdfFnopsuxX
                  0x00610e                  __vfprintf_cdnopuxX
                  0x00610e                  __vfprintf_cdfFnopuxX
                  0x006b0a                  _fgetc
                  0x006b72                  _ungetc
                  0x006bac                  __filbuf
                  0x006e50                  __CNInterrupt
                  0x007092                  __ADC1Interrupt
                  0x00745c                  __DAC1LInterrupt
                  0x00764e                  __DefaultInterrupt
                  0x007660                  __OscillatorFail
                  0x007672                  __AddressError
                  0x007678                  __StackError
                  0x00767e                  __MathError
                  0x007690                  _HasCOR
                  0x0076ae                  _HasCTCSS
                  0x0076de                  _SetCTCSSTone
                  0x007776                  _SetTxTone
                  0x00789e                  _GetBootCS
                  0x0078b4                  _htons
                  0x0078c8                  _ntohs
                  0x0078dc                  _htonl
                  0x0078fa                  _ntohl
                  0x007918                  _getGPSStr
                  0x007958                  _getTSIPPacket
                  0x007a20                  _adpcm_decoder
                  0x007b10                  _read
                  0x007b50                  _SaveAppConfig
                  0x007e2a                  _IOExp_Write
                  0x007e9a                  _SetAudioSrc
                  0x007efc                  _process_udp
                  0x0085c0                  _main_processing_loop
                  0x0088ce                  _write
                  0x008942                  _process_gps
                  0x008f30                  _SetPTT
                  0x008f50                  _ToggleLED
                  0x008f68                  _SetLED
                  0x008f8c                  _IOExpInit
                  0x008fb2                  _IOExp_Read
                  0x009024                  _secondary_processing_loop
                  0x009f02                  _myfgets
                  0x00a4ec                  _main
                  0x00b6f6                  _TCPWasReset
                  0x00b708                  _TCPIsConnected
                  0x00b71a                  _TCPIsPutReady
                  0x00b748                  _TCPGetTxFIFOFull
                  0x00b762                  _TCPIsGetReady
                  0x00b77e                  _TCPGetRxFIFOFree
                  0x00b936                  _TCPGetRemoteInfo
                  0x00b94a                  _TCPInit
                  0x00bcee                  _TCPAdjustFIFOSize
                  0x00bdce                  _TCPDiscard
                  0x00bdea                  _TCPFlush
                  0x00be00                  _TCPDisconnect
                  0x00be76                  _TCPClose
                  0x00be88                  _TCPOpen
                  0x00bfa0                  _TCPProcess
                  0x00c7ce                  _TCPTick
                  0x00cb08                  _TCPFindArrayEx
                  0x00d0a4                  _TCPFindEx
                  0x00d0b8                  _TCPPeekArray
                  0x00d122                  _TCPPeek
                  0x00d134                  _TCPGetArray
                  0x00d1b8                  _TCPGet
                  0x00d218                  _TCPPutArray
                  0x00d2bc                  _TCPPutString
                  0x00d2d4                  _TCPPut
                  0x00d358                  _MACGet
                  0x00d388                  _MACGetArray
                  0x00d432                  _MACPut
                  0x00d46c                  _MACPutArray
                  0x00d5ae                  _MACSetReadPtrInRx
                  0x00d5d0                  _MACPutHeader
                  0x00d65e                  _MACDiscardRx
                  0x00d6e2                  _SetCLKOUT
                  0x00d6f8                  _WritePHYReg
                  0x00d730                  _ReadPHYReg
                  0x00d78e                  _MACIsLinked
                  0x00d7a0                  _MACBurp
                  0x00d7e2                  _GetCLKOUT
                  0x00d7fe                  _MACPowerUp
                  0x00d81c                  _MACPowerDown
                  0x00d846                  _MACIsMemCopyDone
                  0x00d85c                  _MACMemCopyAsync
                  0x00da54                  _CalcIPBufferChecksum
                  0x00db88                  _MACCalcRxChecksum
                  0x00dbe4                  _MACSetReadPtr
                  0x00dc1e                  _MACSetWritePtr
                  0x00dc58                  _MACFlush
                  0x00ddda                  _MACGetHeader
                  0x00de78                  _MACGetFreeRxSize
                  0x00defe                  _MACIsTxReady
                  0x00df14                  _MACInit
                  0x00e05c                  _DDNSInit
                  0x00e092                  _DDNSTask
                  0x00eaf8                  _DDNSForceUpdate
                  0x00eb08                  _DDNSSetService
                  0x00eb1c                  _DDNSGetLastIP
                  0x00eb24                  _DDNSGetLastStatus
                  0x00eb28                  _LFSRRand
                  0x00ed1e                  _LFSRSeedRand
                  0x00ed58                  _GenerateRandomDWORD
                  0x00ee04                  _StringToIPAddress
                  0x00eeb2                  _Base64Encode
                  0x00f054                  _uitoa
                  0x00f0f6                  _hexatob
                  0x00f15c                  _btohexa_high
                  0x00f170                  _btohexa_low
                  0x00f182                  _stricmppgm2ram
                  0x00f1d0                  _swaps
                  0x00f1e2                  _swapl
                  0x00f210                  _CalcIPChecksum
                  0x00f2d2                  _strupr
                  0x00f2f2                  _FormatNetBIOSName
                  0x00f41c                  _strnchr
                  0x00f562                  _DHCPInit
                  0x00f58e                  _DHCPDisable
                  0x00f5a4                  _DHCPEnable
                  0x00f5b4                  _DHCPIsEnabled
                  0x00f5be                  _DHCPIsBound
                  0x00f5c4                  _DHCPStateChanged
                  0x00f5d4                  _DHCPIsServerDetected
                  0x00f9d6                  _DHCPTask
                  0x00fc64                  _UDPClose
                  0x00fc7c                  _UDPInit
                  0x00fcaa                  _UDPTask
                  0x00fcb0                  _UDPOpen
                  0x00fd7a                  _UDPSetTxBuffer
                  0x00fd8a                  _UDPSetRxBuffer
                  0x00fd98                  _UDPIsPutReady
                  0x00fdbe                  _UDPPut
                  0x00fde4                  _UDPPutArray
                  0x00fe0e                  _UDPPutString
                  0x00fe22                  _UDPFlush
                  0x00fecc                  _UDPIsGetReady
                  0x00fef0                  _UDPGet
                  0x00ff1a                  _UDPGetArray
                  0x00ff48                  _UDPDiscard
                  0x00ff62                  _UDPProcess
                  0x01016e                  _DNSBeginUsage
                  0x010182                  _DNSEndUsage
                  0x0101a2                  _DNSResolve
                  0x01025e                  _DNSIsResolved
                  0x010672                  __U1RXInterrupt
                  0x0106d0                  __U1TXInterrupt
                  0x0106fe                  __U2RXInterrupt
                  0x01075c                  __U2TXInterrupt
                  0x010788                  _InitUARTS
                  0x0107cc                  _DataRdyUART
                  0x0107e2                  _ReadUART
                  0x0107f6                  _ReadStringUART
                  0x010828                  _WriteUART
                  0x010858                  _putsUART
                  0x01086e                  _putrsUART
                  0x010884                  _getsUART
                  0x010954                  _BusyUART
                  0x01096e                  _WriteUART2
                  0x01099c                  _putsUART2
                  0x0109b2                  _putrsUART2
                  0x0109c8                  _DataRdyUART2
                  0x0109de                  _ReadUART2
                  0x0109f2                  _getsUART2
                  0x010ac2                  _BusyUART2
                  0x010f1c                  _set_atten
                  0x010f66                  _init_squelch
                  0x010f98                  _service_squelch
                  0x011260                  _XEEInit
                  0x011278                  _XEEBeginRead
                  0x011282                  _XEEEndRead
                  0x011284                  _XEEBeginWrite
                  0x01128e                  _XEEReadArray
                  0x01132a                  _XEERead
                  0x011362                  _XEEIsBusy
                  0x01148e                  _XEEEndWrite
                  0x011498                  _XEEWrite
                  0x0114b8                  _XEEWriteArray
                  0x01154c                  _TelnetTask
                  0x011702                  _GetTelnetConsole
                  0x01172e                  _PutTelnetConsole
                  0x01179a                  _ProcessTelnetTimer
                  0x0117ea                  _CloseTelnetConsole
                  0x01180a                  _ARPInit
                  0x011836                  _ARPIsResolved
                  0x0118d4                  _SwapARPPacket
                  0x011950                  _ARPResolve
                  0x0119de                  _ARPProcess
                  0x011a9e                  _ICMPProcess
                  0x011b42                  _ICMPSendPing
                  0x011b5c                  _ICMPSendPingToHost
                  0x011b76                  _ICMPGetReply
                  0x011c68                  _ICMPBeginUsage
                  0x011c7c                  _ICMPEndUsage
                  0x011c82                  _Delay10us
                  0x011cae                  _DelayMs
                  0x011e5a                  _StackInit
                  0x011e84                  _StackTask
                  0x011fd0                  _StackApplications
                  0x011fd4                  _IPSetRxBuffer
                  0x011ff6                  _IPPutHeader
                  0x01207e                  _IPGetHeader
                  0x0120fe                  _TickInit
                  0x012166                  _TickGet
                  0x01216e                  _TickGetDiv256
                  0x012192                  _TickGetDiv64K
                  0x0121b6                  _TickConvertToMilliseconds
                  0x0121c8                  __T1Interrupt
                  0x0121dc                  _doubleify
                  0x0123b0                  _ulawtabletx
                  0x0125b0                  _exp_lut
                  0x0126b0                  _VERSION
                  0x0126c1                  _hosttmomsg
                  0x0126e1                  _badmix
                  0x012720                  _newvalnotchanged
                  0x012742                  _newvalerror
                  0x012764                  _saved
                  0x01278e                  _newvalchanged
                  0x0127aa                  _entnewval
                  0x0127bd                  _gpsmsg9
                  0x0127d2                  _gpsmsg8
                  0x012801                  _gpsmsg7
                  0x01282a                  _gpsmsg6
                  0x012859                  _gpsmsg5
                  0x01287a                  _gpsmsg3
                  0x012899                  _gpsmsg2
                  0x0128ce                  _gpsmsg1
                  0x0155ca                  _ddnsServiceHosts
                  0x0157f4                  _TCPSocketInitializer
                  0xf80004                  __FGS.sec

External Symbols in Program Memory (by name):

                  0x01180a                  _ARPInit
                  0x011836                  _ARPIsResolved
                  0x0119de                  _ARPProcess
                  0x011950                  _ARPResolve
                  0x00eeb2                  _Base64Encode
                  0x010954                  _BusyUART
                  0x010ac2                  _BusyUART2
                  0x00da54                  _CalcIPBufferChecksum
                  0x00f210                  _CalcIPChecksum
                  0x0117ea                  _CloseTelnetConsole
                  0x00eaf8                  _DDNSForceUpdate
                  0x00eb1c                  _DDNSGetLastIP
                  0x00eb24                  _DDNSGetLastStatus
                  0x00e05c                  _DDNSInit
                  0x00eb08                  _DDNSSetService
                  0x00e092                  _DDNSTask
                  0x00f58e                  _DHCPDisable
                  0x00f5a4                  _DHCPEnable
                  0x00f562                  _DHCPInit
                  0x00f5be                  _DHCPIsBound
                  0x00f5b4                  _DHCPIsEnabled
                  0x00f5d4                  _DHCPIsServerDetected
                  0x00f5c4                  _DHCPStateChanged
                  0x00f9d6                  _DHCPTask
                  0x01016e                  _DNSBeginUsage
                  0x010182                  _DNSEndUsage
                  0x01025e                  _DNSIsResolved
                  0x0101a2                  _DNSResolve
                  0x0107cc                  _DataRdyUART
                  0x0109c8                  _DataRdyUART2
                  0x011c82                  _Delay10us
                  0x011cae                  _DelayMs
                  0x00f2f2                  _FormatNetBIOSName
                  0x00ed58                  _GenerateRandomDWORD
                  0x00789e                  _GetBootCS
                  0x00d7e2                  _GetCLKOUT
                  0x011702                  _GetTelnetConsole
                  0x007690                  _HasCOR
                  0x0076ae                  _HasCTCSS
                  0x011c68                  _ICMPBeginUsage
                  0x011c7c                  _ICMPEndUsage
                  0x011b76                  _ICMPGetReply
                  0x011a9e                  _ICMPProcess
                  0x011b42                  _ICMPSendPing
                  0x011b5c                  _ICMPSendPingToHost
                  0x008f8c                  _IOExpInit
                  0x008fb2                  _IOExp_Read
                  0x007e2a                  _IOExp_Write
                  0x01207e                  _IPGetHeader
                  0x011ff6                  _IPPutHeader
                  0x011fd4                  _IPSetRxBuffer
                  0x010788                  _InitUARTS
                  0x00eb28                  _LFSRRand
                  0x00ed1e                  _LFSRSeedRand
                  0x00d7a0                  _MACBurp
                  0x00db88                  _MACCalcRxChecksum
                  0x00d65e                  _MACDiscardRx
                  0x00dc58                  _MACFlush
                  0x00d358                  _MACGet
                  0x00d388                  _MACGetArray
                  0x00de78                  _MACGetFreeRxSize
                  0x00ddda                  _MACGetHeader
                  0x00df14                  _MACInit
                  0x00d78e                  _MACIsLinked
                  0x00d846                  _MACIsMemCopyDone
                  0x00defe                  _MACIsTxReady
                  0x00d85c                  _MACMemCopyAsync
                  0x00d81c                  _MACPowerDown
                  0x00d7fe                  _MACPowerUp
                  0x00d432                  _MACPut
                  0x00d46c                  _MACPutArray
                  0x00d5d0                  _MACPutHeader
                  0x00dbe4                  _MACSetReadPtr
                  0x00d5ae                  _MACSetReadPtrInRx
                  0x00dc1e                  _MACSetWritePtr
                  0x01179a                  _ProcessTelnetTimer
                  0x01172e                  _PutTelnetConsole
                  0x00d730                  _ReadPHYReg
                  0x0107f6                  _ReadStringUART
                  0x0107e2                  _ReadUART
                  0x0109de                  _ReadUART2
                  0x007b50                  _SaveAppConfig
                  0x007e9a                  _SetAudioSrc
                  0x00d6e2                  _SetCLKOUT
                  0x0076de                  _SetCTCSSTone
                  0x008f68                  _SetLED
                  0x008f30                  _SetPTT
                  0x007776                  _SetTxTone
                  0x011fd0                  _StackApplications
                  0x011e5a                  _StackInit
                  0x011e84                  _StackTask
                  0x00ee04                  _StringToIPAddress
                  0x0118d4                  _SwapARPPacket
                  0x00bcee                  _TCPAdjustFIFOSize
                  0x00be76                  _TCPClose
                  0x00bdce                  _TCPDiscard
                  0x00be00                  _TCPDisconnect
                  0x00cb08                  _TCPFindArrayEx
                  0x00d0a4                  _TCPFindEx
                  0x00bdea                  _TCPFlush
                  0x00d1b8                  _TCPGet
                  0x00d134                  _TCPGetArray
                  0x00b936                  _TCPGetRemoteInfo
                  0x00b77e                  _TCPGetRxFIFOFree
                  0x00b748                  _TCPGetTxFIFOFull
                  0x00b94a                  _TCPInit
                  0x00b708                  _TCPIsConnected
                  0x00b762                  _TCPIsGetReady
                  0x00b71a                  _TCPIsPutReady
                  0x00be88                  _TCPOpen
                  0x00d122                  _TCPPeek
                  0x00d0b8                  _TCPPeekArray
                  0x00bfa0                  _TCPProcess
                  0x00d2d4                  _TCPPut
                  0x00d218                  _TCPPutArray
                  0x00d2bc                  _TCPPutString
                  0x0157f4                  _TCPSocketInitializer
                  0x00c7ce                  _TCPTick
                  0x00b6f6                  _TCPWasReset
                  0x01154c                  _TelnetTask
                  0x0121b6                  _TickConvertToMilliseconds
                  0x012166                  _TickGet
                  0x01216e                  _TickGetDiv256
                  0x012192                  _TickGetDiv64K
                  0x0120fe                  _TickInit
                  0x008f50                  _ToggleLED
                  0x00fc64                  _UDPClose
                  0x00ff48                  _UDPDiscard
                  0x00fe22                  _UDPFlush
                  0x00fef0                  _UDPGet
                  0x00ff1a                  _UDPGetArray
                  0x00fc7c                  _UDPInit
                  0x00fecc                  _UDPIsGetReady
                  0x00fd98                  _UDPIsPutReady
                  0x00fcb0                  _UDPOpen
                  0x00ff62                  _UDPProcess
                  0x00fdbe                  _UDPPut
                  0x00fde4                  _UDPPutArray
                  0x00fe0e                  _UDPPutString
                  0x00fd8a                  _UDPSetRxBuffer
                  0x00fd7a                  _UDPSetTxBuffer
                  0x00fcaa                  _UDPTask
                  0x0126b0                  _VERSION
                  0x00d6f8                  _WritePHYReg
                  0x010828                  _WriteUART
                  0x01096e                  _WriteUART2
                  0x011278                  _XEEBeginRead
                  0x011284                  _XEEBeginWrite
                  0x011282                  _XEEEndRead
                  0x01148e                  _XEEEndWrite
                  0x011260                  _XEEInit
                  0x011362                  _XEEIsBusy
                  0x01132a                  _XEERead
                  0x01128e                  _XEEReadArray
                  0x011498                  _XEEWrite
                  0x0114b8                  _XEEWriteArray
                  0x007092                  __ADC1Interrupt
                  0x007672                  __AddressError
                  0x006e50                  __CNInterrupt
                  0x00745c                  __DAC1LInterrupt
                  0x00764e                  __DefaultInterrupt
                  0xf80004                  __FGS.sec
                  0x00767e                  __MathError
                  0x007660                  __OscillatorFail
                  0x007678                  __StackError
                  0x0121c8                  __T1Interrupt
                  0x010672                  __U1RXInterrupt
                  0x0106d0                  __U1TXInterrupt
                  0x0106fe                  __U2RXInterrupt
                  0x01075c                  __U2TXInterrupt
                  0x003f36                  ___adddf3
                  0x0037d0                  ___addsf3
                  0x003e30                  ___divdf3
                  0x0035e4                  ___divdi3
                  0x0036f4                  ___divsf3
                  0x00395c                  ___divsi3
                  0x003e0c                  ___eqdf2
                  0x0036f0                  ___eqsf2
                  0x003dce                  ___extendsfdf2
                  0x0038f6                  ___fixsfsi
                  0x004034                  ___fixunsdfdi
                  0x003ee4                  ___fixunsdfsi
                  0x004096                  ___floatdidf
                  0x003f30                  ___floatsidf
                  0x003778                  ___floatsisf
                  0x003e26                  ___gedf2
                  0x00397a                  ___gesf2
                  0x003e26                  ___gtdf2
                  0x00397a                  ___gtsf2
                  0x003e0c                  ___ledf2
                  0x0036f0                  ___lesf2
                  0x003e0c                  ___ltdf2
                  0x0036f0                  ___ltsf2
                  0x00361e                  ___moddi3
                  0x003cc6                  ___modsi3
                  0x003ce4                  ___muldf3
                  0x0034ce                  ___mulp32eds3
                  0x0034ce                  ___mulp32peds3
                  0x00388a                  ___mulsf3
                  0x0034ce                  ___mulsi3
                  0x003e16                  ___nedf2
                  0x004030                  ___subdf3
                  0x0037ce                  ___subsf3
                  0x003984                  ___truncdfsf2
                  0x0035ce                  ___udivdi3
                  0x003500                  ___udivmoddi3
                  0x00393c                  ___udivsi3
                  0x0035dc                  ___umoddi3
                  0x00397e                  ___umodsi3
                  0x003c0c                  __dPropagateNaN
                  0x003432                  __data_init
                  0x003432                  __data_init_standard
                  0x00415c                  __dcompare
                  0x004104                  __dpack
                  0x003bf8                  __dreturnNaN
                  0x0041c8                  __dtype
                  0x003b88                  __dunpack
                  0x003bd6                  __dunpack2
                  0x003bfe                  __dunpack2exit
                  0x003a20                  __fPropagateNaN
                  0x003a32                  __fbopExit
                  0x003a3a                  __fbopReturnNaN
                  0x0039da                  __fcompare
                  0x006bac                  __filbuf
                  0x003c28                  __fmodrem
                  0x003a40                  __fpack
                  0x0041ae                  __frexpf
                  0x003b5e                  __funpack
                  0x003a10                  __funpack2
                  0x003422                  __psv_init
                  0x003400                  __resetPRI
                  0x003a8c                  __sincosf
                  0x004bc2                  __sprintf_cdfFnopsuxX
                  0x004bc2                  __sprintf_cdfFnopuxX
                  0x004bc2                  __sprintf_cdnopsuxX
                  0x004bc2                  __sprintf_cdnopuxX
                  0x0049be                  __sscanf_cdnopuxX
                  0x00610e                  __vfprintf_cdfFnopsuxX
                  0x00610e                  __vfprintf_cdfFnopuxX
                  0x00610e                  __vfprintf_cdnopsuxX
                  0x00610e                  __vfprintf_cdnopuxX
                  0x005e1e                  __vfscanf_cdnopuxX
                  0x007a20                  _adpcm_decoder
                  0x004332                  _asctime
                  0x004bbe                  _atof
                  0x004754                  _atoi
                  0x0126e1                  _badmix
                  0x00f15c                  _btohexa_high
                  0x00f170                  _btohexa_low
                  0x003938                  _cosf
                  0x0043c4                  _ctime
                  0x0155ca                  _ddnsServiceHosts
                  0x0121dc                  _doubleify
                  0x0127aa                  _entnewval
                  0x0125b0                  _exp_lut
                  0x00495a                  _fflush
                  0x006b0a                  _fgetc
                  0x003c08                  _fmodf
                  0x0046f4                  _fputs
                  0x003e20                  _frexpf
                  0x007918                  _getGPSStr
                  0x007958                  _getTSIPPacket
                  0x010884                  _getsUART
                  0x0109f2                  _getsUART2
                  0x004270                  _gmtime
                  0x0128ce                  _gpsmsg1
                  0x012899                  _gpsmsg2
                  0x01287a                  _gpsmsg3
                  0x012859                  _gpsmsg5
                  0x01282a                  _gpsmsg6
                  0x012801                  _gpsmsg7
                  0x0127d2                  _gpsmsg8
                  0x0127bd                  _gpsmsg9
                  0x00f0f6                  _hexatob
                  0x0126c1                  _hosttmomsg
                  0x0078dc                  _htonl
                  0x0078b4                  _htons
                  0x010f66                  _init_squelch
                  0x0034ba                  _isalpha
                  0x003490                  _isspace
                  0x0034a0                  _isupper
                  0x00431a                  _localtime
                  0x00a4ec                  _main
                  0x0085c0                  _main_processing_loop
                  0x0046b2                  _memcmp
                  0x004206                  _memcpy
                  0x0041ec                  _memset
                  0x004816                  _mktime
                  0x009f02                  _myfgets
                  0x01278e                  _newvalchanged
                  0x012742                  _newvalerror
                  0x012720                  _newvalnotchanged
                  0x0078fa                  _ntohl
                  0x0078c8                  _ntohs
                  0x0046e6                  _printf
                  0x008942                  _process_gps
                  0x007efc                  _process_udp
                  0x01086e                  _putrsUART
                  0x0109b2                  _putrsUART2
                  0x004712                  _puts
                  0x010858                  _putsUART
                  0x01099c                  _putsUART2
                  0x007b10                  _read
                  0x012764                  _saved
                  0x009024                  _secondary_processing_loop
                  0x010f98                  _service_squelch
                  0x010f1c                  _set_atten
                  0x0038f2                  _sinf
                  0x0049ae                  _strchr
                  0x004214                  _strcmp
                  0x0046a2                  _strcpy
                  0x00444c                  _strftime
                  0x00f182                  _stricmppgm2ram
                  0x0041fa                  _strlen
                  0x00f41c                  _strnchr
                  0x005d1e                  _strncmp
                  0x00489e                  _strncpy
                  0x004726                  _strstr
                  0x0049da                  _strtod
                  0x00f2d2                  _strupr
                  0x00f1e2                  _swapl
                  0x00f1d0                  _swaps
                  0x0034ac                  _tolower
                  0x00f054                  _uitoa
                  0x0123b0                  _ulawtabletx
                  0x006b72                  _ungetc
                  0x004d42                  _vfprintf
                  0x0088ce                  _write

Memory Configuration

Name             Origin             Length             Attributes
data             0x000800           0x004000           a !xr
reset            0x000000           0x000004  
ivt              0x000004           0x0000fc  
aivt             0x000104           0x0000fc  
program          0x003400           0x012400           xr
FBS              0xf80000           0x000002  
FSS              0xf80002           0x000002  
FGS              0xf80004           0x000002  
FOSCSEL          0xf80006           0x000002  
FOSC             0xf80008           0x000002  
FWDT             0xf8000a           0x000002  
FPOR             0xf8000c           0x000002  
FICD             0xf8000e           0x000002  
FUID0            0xf80010           0x000002  
FUID1            0xf80012           0x000002  
FUID2            0xf80014           0x000002  
FUID3            0xf80016           0x000002  
*default*        0x000000           0xffffffff  

Linker script and memory map

LOAD ARP.o
LOAD Delay.o
LOAD DHCP.o
LOAD DNS.o
LOAD ENC28J60.o
LOAD Helpers.o
LOAD IP.o
LOAD Random.o
LOAD SPIEEPROM.o
LOAD StackTsk.o
LOAD Tick.o
LOAD UART.o
LOAD UDP.o
LOAD squelch.o
LOAD Telnet.o
LOAD TCP.o
LOAD DynDNS.o
LOAD Voter.o
LOAD doubleify.o
LOAD ICMP.o
LOAD c:/program files (x86)/microchip/mplab c30/bin/bin/../../lib/dsPIC33F\libp33FJ128GP802-coff.a
                    0xf80000                  __FBS = 0xf80000
                    0xf80002                  __FSS = 0xf80002
                    0xf80004                  __FGS = 0xf80004
                    0xf80006                  __FOSCSEL = 0xf80006
                    0xf80008                  __FOSC = 0xf80008
                    0xf8000a                  __FWDT = 0xf8000a
                    0xf8000c                  __FPOR = 0xf8000c
                    0xf8000e                  __FICD = 0xf8000e
                    0xf80010                  __FUID0 = 0xf80010
                    0xf80012                  __FUID1 = 0xf80012
                    0xf80014                  __FUID2 = 0xf80014
                    0xf80016                  __FUID3 = 0xf80016
                    0x0004                  __IVT_BASE = 0x4
                    0x0104                  __AIVT_BASE = 0x104
                    0x0800                  __DATA_BASE = 0x800
                    0x2800                  __YDATA_BASE = 0x2800
                    0x4000                  __DMA_BASE = 0x4000
                    0x47ff                  __DMA_END = 0x47ff
                    0x0200                  __CODE_BASE = 0x200

.reset            0x000000          0x4
                  0x000000          0x2 SHORT 0x3400 ABSOLUTE (__reset)
                  0x000001          0x2 SHORT 0x4
                  0x000002          0x2 SHORT 0x0 ((ABSOLUTE (__reset) >> 0x10) & 0x7f)
                  0x000003          0x2 SHORT 0x0

.text             0x003400       0x3848
 *(.init)
 .init            0x003400         0x32 c:/program files (x86)/microchip/mplab c30/bin/bin/../../lib\libpic30-coff.a(crt0_standard.o)
                  0x003400                  _resetPRI
                  0x003400                  _reset
                  0x003422                  _psv_init
 .init            0x003432         0x5e c:/program files (x86)/microchip/mplab c30/bin/bin/../../lib\libpic30-coff.a(data_init_standard.o)
                  0x003432                  _data_init_standard
                  0x003432                  _data_init
 *(.user_init)
 *(.handle)
 *(.libc)
 .libc            0x003490         0x10 c:/program files (x86)/microchip/mplab c30/bin/bin/../../lib\libc-coff.a(isspace.XXo)
                  0x003490                  isspace
 .libc            0x0034a0          0xc c:/program files (x86)/microchip/mplab c30/bin/bin/../../lib\libc-coff.a(isupper.XXo)
                  0x0034a0                  isupper
 .libc            0x0034ac          0xe c:/program files (x86)/microchip/mplab c30/bin/bin/../../lib\libc-coff.a(tolower.XXo)
                  0x0034ac                  tolower
 .libc            0x0034ba         0x14 c:/program files (x86)/microchip/mplab c30/bin/bin/../../lib\libc-coff.a(isalpha.XXo)
                  0x0034ba                  isalpha
 .libc            0x0034ce          0xc c:/program files (x86)/microchip/mplab c30/bin/bin/../../lib\libm-coff.a(mulsi3.o)
                  0x0034ce                  __mulp32peds3
                  0x0034ce                  __mulsi3
                  0x0034ce                  __mulp32eds3
 *(.libm)
 .libm            0x0034da        0x216 c:/program files (x86)/microchip/mplab c30/bin/bin/../../lib\libm-coff.a(divmoddi3.o)
                  0x003500                  __udivmoddi3
                  0x0035ce                  __udivdi3
                  0x0035dc                  __umoddi3
                  0x0035e4                  __divdi3
                  0x00361e                  __moddi3
 .libm            0x0036f0          0x4 c:/program files (x86)/microchip/mplab c30/bin/bin/../../lib\libm-coff.a(feqltle.o)
                  0x0036f0                  __eqsf2
                  0x0036f0                  __ltsf2
                  0x0036f0                  __lesf2
 .libm            0x0036f4         0x84 c:/program files (x86)/microchip/mplab c30/bin/bin/../../lib\libm-coff.a(divsf3.o)
                  0x0036f4                  __divsf3
 .libm            0x003778         0x56 c:/program files (x86)/microchip/mplab c30/bin/bin/../../lib\libm-coff.a(floatsisf.o)
                  0x003778                  __floatsisf
 .libm            0x0037ce         0xbc c:/program files (x86)/microchip/mplab c30/bin/bin/../../lib\libm-coff.a(addsf3.o)
                  0x0037ce                  __subsf3
                  0x0037d0                  __addsf3
 .libm            0x00388a         0x68 c:/program files (x86)/microchip/mplab c30/bin/bin/../../lib\libm-coff.a(mulsf3.o)
                  0x00388a                  __mulsf3
 .libm            0x0038f2          0x4 c:/program files (x86)/microchip/mplab c30/bin/bin/../../lib\libm-coff.a(sinf.o)
                  0x0038f2                  sinf
 .libm            0x0038f6         0x42 c:/program files (x86)/microchip/mplab c30/bin/bin/../../lib\libm-coff.a(fixsfsi.o)
                  0x0038f6                  __fixsfsi
 .libm            0x003938          0x4 c:/program files (x86)/microchip/mplab c30/bin/bin/../../lib\libm-coff.a(cosf.o)
                  0x003938                  cosf
 .libm            0x00393c         0x20 c:/program files (x86)/microchip/mplab c30/bin/bin/../../lib\libm-coff.a(udivsi3.o)
                  0x00393c                  __udivsi3
 .libm            0x00395c         0x1e c:/program files (x86)/microchip/mplab c30/bin/bin/../../lib\libm-coff.a(divsi3.o)
                  0x00395c                  __divsi3
 .libm            0x00397a          0x4 c:/program files (x86)/microchip/mplab c30/bin/bin/../../lib\libm-coff.a(fgtge.o)
                  0x00397a                  __gesf2
                  0x00397a                  __gtsf2
 .libm            0x00397e          0x6 c:/program files (x86)/microchip/mplab c30/bin/bin/../../lib\libm-coff.a(umodsi3.o)
                  0x00397e                  __umodsi3
 .libm            0x003984         0x56 c:/program files (x86)/microchip/mplab c30/bin/bin/../../lib\libm-coff.a(truncdfsf.o)
                  0x003984                  __truncdfsf2
 .libm            0x0039da         0x36 c:/program files (x86)/microchip/mplab c30/bin/bin/../../lib\libm-coff.a(fcompare.o)
                  0x0039da                  _fcompare
 .libm            0x003a10         0x10 c:/program files (x86)/microchip/mplab c30/bin/bin/../../lib\libm-coff.a(funpack2.o)
                  0x003a10                  _funpack2
 .libm            0x003a20         0x20 c:/program files (x86)/microchip/mplab c30/bin/bin/../../lib\libm-coff.a(futil.o)
                  0x003a20                  _fPropagateNaN
                  0x003a32                  _fbopExit
                  0x003a3a                  _fbopReturnNaN
 .libm            0x003a40         0x4c c:/program files (x86)/microchip/mplab c30/bin/bin/../../lib\libm-coff.a(fpack.o)
                  0x003a40                  _fpack
 .libm            0x003a8c         0xd2 c:/program files (x86)/microchip/mplab c30/bin/bin/../../lib\libm-coff.a(sincosf.o)
                  0x003a8c                  _sincosf
 .libm            0x003b5e         0x2a c:/program files (x86)/microchip/mplab c30/bin/bin/../../lib\libm-coff.a(funpack.o)
                  0x003b5e                  _funpack
 .libm            0x003b88         0x4e c:/program files (x86)/microchip/mplab c30/bin/bin/../../lib\libm-coff.a(dunpack.o)
                  0x003b88                  _dunpack
 .libm            0x003bd6         0x32 c:/program files (x86)/microchip/mplab c30/bin/bin/../../lib\libm-coff.a(dunpack2.o)
                  0x003bd6                  _dunpack2
                  0x003bf8                  _dreturnNaN
                  0x003bfe                  _dunpack2exit
 .libm            0x003c08          0x4 c:/program files (x86)/microchip/mplab c30/bin/bin/../../lib\libm-coff.a(fmodf.o)
                  0x003c08                  fmodf
 .libm            0x003c0c         0x1c c:/program files (x86)/microchip/mplab c30/bin/bin/../../lib\libm-coff.a(dpropagateNaN.o)
                  0x003c0c                  _dPropagateNaN
 .libm            0x003c28         0x9e c:/program files (x86)/microchip/mplab c30/bin/bin/../../lib\libm-coff.a(fmodrem.o)
                  0x003c28                  _fmodrem
 .libm            0x003cc6         0x1e c:/program files (x86)/microchip/mplab c30/bin/bin/../../lib\libm-coff.a(modsi3.o)
                  0x003cc6                  __modsi3
 .libm            0x003ce4         0xea c:/program files (x86)/microchip/mplab c30/bin/bin/../../lib\libm-coff.a(muldf3.o)
                  0x003ce4                  __muldf3
 .libm            0x003dce         0x3e c:/program files (x86)/microchip/mplab c30/bin/bin/../../lib\libm-coff.a(extendsfdf.o)
                  0x003dce                  __extendsfdf2
 .libm            0x003e0c          0xa c:/program files (x86)/microchip/mplab c30/bin/bin/../../lib\libm-coff.a(deqltle.o)
                  0x003e0c                  __eqdf2
                  0x003e0c                  __ltdf2
                  0x003e0c                  __ledf2
 .libm            0x003e16          0xa c:/program files (x86)/microchip/mplab c30/bin/bin/../../lib\libm-coff.a(dne.o)
                  0x003e16                  __nedf2
 .libm            0x003e20          0x6 c:/program files (x86)/microchip/mplab c30/bin/bin/../../lib\libm-coff.a(frexpf.o)
                  0x003e20                  frexpf
 .libm            0x003e26          0xa c:/program files (x86)/microchip/mplab c30/bin/bin/../../lib\libm-coff.a(dgtge.o)
                  0x003e26                  __gtdf2
                  0x003e26                  __gedf2
 .libm            0x003e30         0xb4 c:/program files (x86)/microchip/mplab c30/bin/bin/../../lib\libm-coff.a(divdf3.o)
                  0x003e30                  __divdf3
 .libm            0x003ee4         0x4c c:/program files (x86)/microchip/mplab c30/bin/bin/../../lib\libm-coff.a(fixunsdfsi.o)
                  0x003ee4                  __fixunsdfsi
 .libm            0x003f30          0x6 c:/program files (x86)/microchip/mplab c30/bin/bin/../../lib\libm-coff.a(floatsidf.o)
                  0x003f30                  __floatsidf
 .libm            0x003f36         0xfa c:/program files (x86)/microchip/mplab c30/bin/bin/../../lib\libm-coff.a(adddf3.o)
                  0x003f36                  __adddf3
 .libm            0x004030          0x4 c:/program files (x86)/microchip/mplab c30/bin/bin/../../lib\libm-coff.a(subdf3.o)
                  0x004030                  __subdf3
 .libm            0x004034         0x62 c:/program files (x86)/microchip/mplab c30/bin/bin/../../lib\libm-coff.a(fixunsdfdi.o)
                  0x004034                  __fixunsdfdi
 .libm            0x004096         0x6e c:/program files (x86)/microchip/mplab c30/bin/bin/../../lib\libm-coff.a(floatdidf.o)
                  0x004096                  __floatdidf
 .libm            0x004104         0x58 c:/program files (x86)/microchip/mplab c30/bin/bin/../../lib\libm-coff.a(dpack.o)
                  0x004104                  _dpack
 .libm            0x00415c         0x52 c:/program files (x86)/microchip/mplab c30/bin/bin/../../lib\libm-coff.a(dcompare.o)
                  0x00415c                  _dcompare
 .libm            0x0041ae         0x1a c:/program files (x86)/microchip/mplab c30/bin/bin/../../lib\libm-coff.a(_frexpf.o)
                  0x0041ae                  _frexpf
 .libm            0x0041c8         0x24 c:/program files (x86)/microchip/mplab c30/bin/bin/../../lib\libm-coff.a(dtype.o)
                  0x0041c8                  _dtype
 *(.libdsp)
 *(.lib*)
 .libc.memset     0x0041ec          0xe c:/program files (x86)/microchip/mplab c30/bin/bin/../../lib\libc-coff.a(memset.XXo)
                  0x0041ec                  memset
 .libc.strlen     0x0041fa          0xc c:/program files (x86)/microchip/mplab c30/bin/bin/../../lib\libc-coff.a(strlen.XXo)
                  0x0041fa                  strlen
 .libc.memcpy     0x004206          0xe c:/program files (x86)/microchip/mplab c30/bin/bin/../../lib\libc-coff.a(memcpy.XXo)
                  0x004206                  memcpy
 .libc.strcmp     0x004214         0x10 c:/program files (x86)/microchip/mplab c30/bin/bin/../../lib\libc-coff.a(strcmp.XXo)
                  0x004214                  strcmp
 .libc.put2d      0x004224         0x24 c:/program files (x86)/microchip/mplab c30/bin/bin/../../lib\libc-coff.a(ctime.XXo)
 .libc.dylen      0x004248         0x28 c:/program files (x86)/microchip/mplab c30/bin/bin/../../lib\libc-coff.a(ctime.XXo)
 .libc.gmtime     0x004270         0xaa c:/program files (x86)/microchip/mplab c30/bin/bin/../../lib\libc-coff.a(ctime.XXo)
                  0x004270                  gmtime
 .libc.localtime
                  0x00431a         0x18 c:/program files (x86)/microchip/mplab c30/bin/bin/../../lib\libc-coff.a(ctime.XXo)
                  0x00431a                  localtime
 .libc.asctime    0x004332         0x92 c:/program files (x86)/microchip/mplab c30/bin/bin/../../lib\libc-coff.a(ctime.XXo)
                  0x004332                  asctime
 .libc.ctime      0x0043c4          0x4 c:/program files (x86)/microchip/mplab c30/bin/bin/../../lib\libc-coff.a(ctime.XXo)
                  0x0043c4                  ctime
 .libc.strfmt     0x0043c8         0x84 c:/program files (x86)/microchip/mplab c30/bin/bin/../../lib\libc-coff.a(strftime.XXo)
 .libc.strftime
                  0x00444c        0x256 c:/program files (x86)/microchip/mplab c30/bin/bin/../../lib\libc-coff.a(strftime.XXo)
                  0x00444c                  strftime
 .libc.strcpy     0x0046a2         0x10 c:/program files (x86)/microchip/mplab c30/bin/bin/../../lib\libc-coff.a(strcpy.XXo)
                  0x0046a2                  strcpy
 .libc.memcmp     0x0046b2         0x34 c:/program files (x86)/microchip/mplab c30/bin/bin/../../lib\libc-coff.a(memcmp.XXo)
                  0x0046b2                  memcmp
 .libc.printf     0x0046e6          0xe c:/program files (x86)/microchip/mplab c30/bin/bin/../../lib\libc-coff.a(printf.XXo)
                  0x0046e6                  printf
 .libc.fputs      0x0046f4         0x1e c:/program files (x86)/microchip/mplab c30/bin/bin/../../lib\libc-coff.a(puts.XXo)
                  0x0046f4                  fputs
 .libc.puts       0x004712         0x14 c:/program files (x86)/microchip/mplab c30/bin/bin/../../lib\libc-coff.a(puts.XXo)
                  0x004712                  puts
 .libc.strstr     0x004726         0x2e c:/program files (x86)/microchip/mplab c30/bin/bin/../../lib\libc-coff.a(strstr.XXo)
                  0x004726                  strstr
 .libc.atoi       0x004754         0x48 c:/program files (x86)/microchip/mplab c30/bin/bin/../../lib\libc-coff.a(atoi.XXo)
                  0x004754                  atoi
 .libc.years_to_days
                  0x00479c         0x26 c:/program files (x86)/microchip/mplab c30/bin/bin/../../lib\libc-coff.a(mktime.XXo)
 .libc.ymd_to_scalar
                  0x0047c2         0x54 c:/program files (x86)/microchip/mplab c30/bin/bin/../../lib\libc-coff.a(mktime.XXo)
 .libc.mktime     0x004816         0x88 c:/program files (x86)/microchip/mplab c30/bin/bin/../../lib\libc-coff.a(mktime.XXo)
                  0x004816                  mktime
 .libc.strncpy    0x00489e         0x2e c:/program files (x86)/microchip/mplab c30/bin/bin/../../lib\libc-coff.a(strncpy.XXo)
                  0x00489e                  strncpy
 .libc.fputc      0x0048cc         0x8e c:/program files (x86)/microchip/mplab c30/bin/bin/../../lib\libc-coff.a(fputc.XXo)
                  0x0048cc                  fputc
 .libc.fflush     0x00495a         0x54 c:/program files (x86)/microchip/mplab c30/bin/bin/../../lib\libc-coff.a(fflush.XXo)
                  0x00495a                  fflush
 .libc.strchr     0x0049ae         0x10 c:/program files (x86)/microchip/mplab c30/bin/bin/../../lib\libc-coff.a(strchr.XXo)
                  0x0049ae                  strchr
 .libc._sscanf_cdnopuxX
                  0x0049be         0x1c c:/program files (x86)/microchip/mplab c30/bin/bin/../../lib\libc-coff.a(sscanf_cdnopuxX.XXo)
                  0x0049be                  _sscanf_cdnopuxX
 .libc.strtod     0x0049da        0x1e4 c:/program files (x86)/microchip/mplab c30/bin/bin/../../lib\libc-coff.a(atof.XXo)
                  0x0049da                  strtod
 .libc.atof       0x004bbe          0x4 c:/program files (x86)/microchip/mplab c30/bin/bin/../../lib\libc-coff.a(atof.XXo)
                  0x004bbe                  atof
 .libc._sprintf_cdfFnopsuxX
                  0x004bc2         0x2e c:/program files (x86)/microchip/mplab c30/bin/bin/../../lib\libc-coff.a(sprintf_cdfFnopsuxX.XXo)
                  0x004bc2                  _sprintf_cdfFnopuxX
                  0x004bc2                  _sprintf_cdfFnopsuxX
                  0x004bc2                  _sprintf_cdnopuxX
                  0x004bc2                  _sprintf_cdnopsuxX
 .libc.fround     0x004bf0         0xa4 c:/program files (x86)/microchip/mplab c30/bin/bin/../../lib\libc-coff.a(doprnt.XXo)
 .libc.scale      0x004c94         0xae c:/program files (x86)/microchip/mplab c30/bin/bin/../../lib\libc-coff.a(doprnt.XXo)
 .libc.vfprintf
                  0x004d42        0xfdc c:/program files (x86)/microchip/mplab c30/bin/bin/../../lib\libc-coff.a(doprnt.XXo)
                  0x004d42                  vfprintf
 .libc.strncmp    0x005d1e         0x22 c:/program files (x86)/microchip/mplab c30/bin/bin/../../lib\libc-coff.a(strncmp.XXo)
                  0x005d1e                  strncmp
 .libc._flsbuf    0x005d40         0x86 c:/program files (x86)/microchip/mplab c30/bin/bin/../../lib\libc-coff.a(flsbuf.XXo)
                  0x005d40                  _flsbuf
 .libc.range      0x005dc6         0x3c c:/program files (x86)/microchip/mplab c30/bin/bin/../../lib\libc-coff.a(doscan_cdnopuxX.XXo)
 .libc.wspace     0x005e02         0x1c c:/program files (x86)/microchip/mplab c30/bin/bin/../../lib\libc-coff.a(doscan_cdnopuxX.XXo)
 .libc._vfscanf_cdnopuxX
                  0x005e1e        0x242 c:/program files (x86)/microchip/mplab c30/bin/bin/../../lib\libc-coff.a(doscan_cdnopuxX.XXo)
                  0x005e1e                  _vfscanf_cdnopuxX
 .libc.scale      0x006060         0xae c:/program files (x86)/microchip/mplab c30/bin/bin/../../lib\libc-coff.a(doprnt_cdfFnopsuxX.XXo)
 .libc._vfprintf_cdfFnopsuxX
                  0x00610e        0x9fc c:/program files (x86)/microchip/mplab c30/bin/bin/../../lib\libc-coff.a(doprnt_cdfFnopsuxX.XXo)
                  0x00610e                  _vfprintf_cdnopuxX
                  0x00610e                  _vfprintf_cdnopsuxX
                  0x00610e                  _vfprintf_cdfFnopuxX
                  0x00610e                  _vfprintf_cdfFnopsuxX
 .libc.fgetc      0x006b0a         0x68 c:/program files (x86)/microchip/mplab c30/bin/bin/../../lib\libc-coff.a(fgetc.XXo)
                  0x006b0a                  fgetc
 .libc.ungetc     0x006b72         0x3a c:/program files (x86)/microchip/mplab c30/bin/bin/../../lib\libc-coff.a(ungetc.XXo)
                  0x006b72                  ungetc
 .libc._filbuf    0x006bac         0x9c c:/program files (x86)/microchip/mplab c30/bin/bin/../../lib\libc-coff.a(filbuf.XXo)
                  0x006bac                  _filbuf

usercode
 *(usercode)

__FBS
 *(__FBS.sec)

__FSS
 *(__FSS.sec)

__FGS             0xf80004          0x2
 *(__FGS.sec)
 __FGS.sec        0xf80004          0x2 FGS
                  0xf80004                  _FGS.sec

__FOSCSEL         0xf80006          0x2
 *(__FOSCSEL.sec)
 __FOSCSEL.sec    0xf80006          0x2 Voter.o

__FOSC            0xf80008          0x2
 *(__FOSC.sec)
 __FOSC.sec       0xf80008          0x2 Voter.o

__FWDT            0xf8000a          0x2
 *(__FWDT.sec)
 __FWDT.sec       0xf8000a          0x2 Voter.o

__FPOR            0xf8000c          0x2
 *(__FPOR.sec)
 __FPOR.sec       0xf8000c          0x2 Voter.o

__FICD            0xf8000e          0x2
 *(__FICD.sec)
 __FICD.sec       0xf8000e          0x2 Voter.o

__FUID0
 *(__FUID0.sec)

__FUID1
 *(__FUID1.sec)

__FUID2
 *(__FUID2.sec)

__FUID3
 *(__FUID3.sec)

.comment
 *(.comment)

.debug_info
 *(.debug_info)
 *(.gnu.linkonce.wi.*)

.debug_abbrev
 *(.debug_abbrev)

.debug_line
 *(.debug_line)

.debug_frame
 *(.debug_frame)

.debug_str
 *(.debug_str)

.debug_loc
 *(.debug_loc)

.debug_macinfo
 *(.debug_macinfo)

.debug_pubnames
 *(.debug_pubnames)

.debug_ranges
 *(.debug_ranges)

.debug_aranges
 *(.debug_aranges)

.ivt              0x000004         0xfc
                  0x000004          0x4 LONG 0x764e DEFINED (__ReservedTrap0)?ABSOLUTE (__ReservedTrap0):ABSOLUTE (__DefaultInterrupt)
                  0x000006          0x4 LONG 0x7660 DEFINED (__OscillatorFail)?ABSOLUTE (__OscillatorFail):ABSOLUTE (__DefaultInterrupt)
                  0x000008          0x4 LONG 0x7672 DEFINED (__AddressError)?ABSOLUTE (__AddressError):ABSOLUTE (__DefaultInterrupt)
                  0x00000a          0x4 LONG 0x7678 DEFINED (__StackError)?ABSOLUTE (__StackError):ABSOLUTE (__DefaultInterrupt)
                  0x00000c          0x4 LONG 0x767e DEFINED (__MathError)?ABSOLUTE (__MathError):ABSOLUTE (__DefaultInterrupt)
                  0x00000e          0x4 LONG 0x764e DEFINED (__DMACError)?ABSOLUTE (__DMACError):ABSOLUTE (__DefaultInterrupt)
                  0x000010          0x4 LONG 0x764e DEFINED (__ReservedTrap6)?ABSOLUTE (__ReservedTrap6):ABSOLUTE (__DefaultInterrupt)
                  0x000012          0x4 LONG 0x764e DEFINED (__ReservedTrap7)?ABSOLUTE (__ReservedTrap7):ABSOLUTE (__DefaultInterrupt)
                  0x000014          0x4 LONG 0x764e DEFINED (__INT0Interrupt)?ABSOLUTE (__INT0Interrupt):ABSOLUTE (__DefaultInterrupt)
                  0x000016          0x4 LONG 0x764e DEFINED (__IC1Interrupt)?ABSOLUTE (__IC1Interrupt):ABSOLUTE (__DefaultInterrupt)
                  0x000018          0x4 LONG 0x764e DEFINED (__OC1Interrupt)?ABSOLUTE (__OC1Interrupt):ABSOLUTE (__DefaultInterrupt)
                  0x00001a          0x4 LONG 0x121c8 DEFINED (__T1Interrupt)?ABSOLUTE (__T1Interrupt):ABSOLUTE (__DefaultInterrupt)
                  0x00001c          0x4 LONG 0x764e DEFINED (__DMA0Interrupt)?ABSOLUTE (__DMA0Interrupt):ABSOLUTE (__DefaultInterrupt)
                  0x00001e          0x4 LONG 0x764e DEFINED (__IC2Interrupt)?ABSOLUTE (__IC2Interrupt):ABSOLUTE (__DefaultInterrupt)
                  0x000020          0x4 LONG 0x764e DEFINED (__OC2Interrupt)?ABSOLUTE (__OC2Interrupt):ABSOLUTE (__DefaultInterrupt)
                  0x000022          0x4 LONG 0x764e DEFINED (__T2Interrupt)?ABSOLUTE (__T2Interrupt):ABSOLUTE (__DefaultInterrupt)
                  0x000024          0x4 LONG 0x764e DEFINED (__T3Interrupt)?ABSOLUTE (__T3Interrupt):ABSOLUTE (__DefaultInterrupt)
                  0x000026          0x4 LONG 0x764e DEFINED (__SPI1ErrInterrupt)?ABSOLUTE (__SPI1ErrInterrupt):ABSOLUTE (__DefaultInterrupt)
                  0x000028          0x4 LONG 0x764e DEFINED (__SPI1Interrupt)?ABSOLUTE (__SPI1Interrupt):ABSOLUTE (__DefaultInterrupt)
                  0x00002a          0x4 LONG 0x10672 DEFINED (__U1RXInterrupt)?ABSOLUTE (__U1RXInterrupt):ABSOLUTE (__DefaultInterrupt)
                  0x00002c          0x4 LONG 0x106d0 DEFINED (__U1TXInterrupt)?ABSOLUTE (__U1TXInterrupt):ABSOLUTE (__DefaultInterrupt)
                  0x00002e          0x4 LONG 0x7092 DEFINED (__ADC1Interrupt)?ABSOLUTE (__ADC1Interrupt):ABSOLUTE (__DefaultInterrupt)
                  0x000030          0x4 LONG 0x764e DEFINED (__DMA1Interrupt)?ABSOLUTE (__DMA1Interrupt):ABSOLUTE (__DefaultInterrupt)
                  0x000032          0x4 LONG 0x764e DEFINED (__Interrupt15)?ABSOLUTE (__Interrupt15):ABSOLUTE (__DefaultInterrupt)
                  0x000034          0x4 LONG 0x764e DEFINED (__SI2C1Interrupt)?ABSOLUTE (__SI2C1Interrupt):ABSOLUTE (__DefaultInterrupt)
                  0x000036          0x4 LONG 0x764e DEFINED (__MI2C1Interrupt)?ABSOLUTE (__MI2C1Interrupt):ABSOLUTE (__DefaultInterrupt)
                  0x000038          0x4 LONG 0x764e DEFINED (__CMPInterrupt)?ABSOLUTE (__CMPInterrupt):ABSOLUTE (__DefaultInterrupt)
                  0x00003a          0x4 LONG 0x6e50 DEFINED (__CNInterrupt)?ABSOLUTE (__CNInterrupt):ABSOLUTE (__DefaultInterrupt)
                  0x00003c          0x4 LONG 0x764e DEFINED (__INT1Interrupt)?ABSOLUTE (__INT1Interrupt):ABSOLUTE (__DefaultInterrupt)
                  0x00003e          0x4 LONG 0x764e DEFINED (__Interrupt21)?ABSOLUTE (__Interrupt21):ABSOLUTE (__DefaultInterrupt)
                  0x000040          0x4 LONG 0x764e DEFINED (__IC7Interrupt)?ABSOLUTE (__IC7Interrupt):ABSOLUTE (__DefaultInterrupt)
                  0x000042          0x4 LONG 0x764e DEFINED (__IC8Interrupt)?ABSOLUTE (__IC8Interrupt):ABSOLUTE (__DefaultInterrupt)
                  0x000044          0x4 LONG 0x764e DEFINED (__DMA2Interrupt)?ABSOLUTE (__DMA2Interrupt):ABSOLUTE (__DefaultInterrupt)
                  0x000046          0x4 LONG 0x764e DEFINED (__OC3Interrupt)?ABSOLUTE (__OC3Interrupt):ABSOLUTE (__DefaultInterrupt)
                  0x000048          0x4 LONG 0x764e DEFINED (__OC4Interrupt)?ABSOLUTE (__OC4Interrupt):ABSOLUTE (__DefaultInterrupt)
                  0x00004a          0x4 LONG 0x764e DEFINED (__T4Interrupt)?ABSOLUTE (__T4Interrupt):ABSOLUTE (__DefaultInterrupt)
                  0x00004c          0x4 LONG 0x764e DEFINED (__T5Interrupt)?ABSOLUTE (__T5Interrupt):ABSOLUTE (__DefaultInterrupt)
                  0x00004e          0x4 LONG 0x764e DEFINED (__INT2Interrupt)?ABSOLUTE (__INT2Interrupt):ABSOLUTE (__DefaultInterrupt)
                  0x000050          0x4 LONG 0x106fe DEFINED (__U2RXInterrupt)?ABSOLUTE (__U2RXInterrupt):ABSOLUTE (__DefaultInterrupt)
                  0x000052          0x4 LONG 0x1075c DEFINED (__U2TXInterrupt)?ABSOLUTE (__U2TXInterrupt):ABSOLUTE (__DefaultInterrupt)
                  0x000054          0x4 LONG 0x764e DEFINED (__SPI2ErrInterrupt)?ABSOLUTE (__SPI2ErrInterrupt):ABSOLUTE (__DefaultInterrupt)
                  0x000056          0x4 LONG 0x764e DEFINED (__SPI2Interrupt)?ABSOLUTE (__SPI2Interrupt):ABSOLUTE (__DefaultInterrupt)
                  0x000058          0x4 LONG 0x764e DEFINED (__C1RxRdyInterrupt)?ABSOLUTE (__C1RxRdyInterrupt):ABSOLUTE (__DefaultInterrupt)
                  0x00005a          0x4 LONG 0x764e DEFINED (__C1Interrupt)?ABSOLUTE (__C1Interrupt):ABSOLUTE (__DefaultInterrupt)
                  0x00005c          0x4 LONG 0x764e DEFINED (__DMA3Interrupt)?ABSOLUTE (__DMA3Interrupt):ABSOLUTE (__DefaultInterrupt)
                  0x00005e          0x4 LONG 0x764e DEFINED (__Interrupt37)?ABSOLUTE (__Interrupt37):ABSOLUTE (__DefaultInterrupt)
                  0x000060          0x4 LONG 0x764e DEFINED (__Interrupt38)?ABSOLUTE (__Interrupt38):ABSOLUTE (__DefaultInterrupt)
                  0x000062          0x4 LONG 0x764e DEFINED (__Interrupt39)?ABSOLUTE (__Interrupt39):ABSOLUTE (__DefaultInterrupt)
                  0x000064          0x4 LONG 0x764e DEFINED (__Interrupt40)?ABSOLUTE (__Interrupt40):ABSOLUTE (__DefaultInterrupt)
                  0x000066          0x4 LONG 0x764e DEFINED (__Interrupt41)?ABSOLUTE (__Interrupt41):ABSOLUTE (__DefaultInterrupt)
                  0x000068          0x4 LONG 0x764e DEFINED (__Interrupt42)?ABSOLUTE (__Interrupt42):ABSOLUTE (__DefaultInterrupt)
                  0x00006a          0x4 LONG 0x764e DEFINED (__Interrupt43)?ABSOLUTE (__Interrupt43):ABSOLUTE (__DefaultInterrupt)
                  0x00006c          0x4 LONG 0x764e DEFINED (__Interrupt44)?ABSOLUTE (__Interrupt44):ABSOLUTE (__DefaultInterrupt)
                  0x00006e          0x4 LONG 0x764e DEFINED (__PMPInterrupt)?ABSOLUTE (__PMPInterrupt):ABSOLUTE (__DefaultInterrupt)
                  0x000070          0x4 LONG 0x764e DEFINED (__DMA4Interrupt)?ABSOLUTE (__DMA4Interrupt):ABSOLUTE (__DefaultInterrupt)
                  0x000072          0x4 LONG 0x764e DEFINED (__Interrupt47)?ABSOLUTE (__Interrupt47):ABSOLUTE (__DefaultInterrupt)
                  0x000074          0x4 LONG 0x764e DEFINED (__Interrupt48)?ABSOLUTE (__Interrupt48):ABSOLUTE (__DefaultInterrupt)
                  0x000076          0x4 LONG 0x764e DEFINED (__Interrupt49)?ABSOLUTE (__Interrupt49):ABSOLUTE (__DefaultInterrupt)
                  0x000078          0x4 LONG 0x764e DEFINED (__Interrupt50)?ABSOLUTE (__Interrupt50):ABSOLUTE (__DefaultInterrupt)
                  0x00007a          0x4 LONG 0x764e DEFINED (__Interrupt51)?ABSOLUTE (__Interrupt51):ABSOLUTE (__DefaultInterrupt)
                  0x00007c          0x4 LONG 0x764e DEFINED (__Interrupt52)?ABSOLUTE (__Interrupt52):ABSOLUTE (__DefaultInterrupt)
                  0x00007e          0x4 LONG 0x764e DEFINED (__Interrupt53)?ABSOLUTE (__Interrupt53):ABSOLUTE (__DefaultInterrupt)
                  0x000080          0x4 LONG 0x764e DEFINED (__Interrupt54)?ABSOLUTE (__Interrupt54):ABSOLUTE (__DefaultInterrupt)
                  0x000082          0x4 LONG 0x764e DEFINED (__Interrupt55)?ABSOLUTE (__Interrupt55):ABSOLUTE (__DefaultInterrupt)
                  0x000084          0x4 LONG 0x764e DEFINED (__Interrupt56)?ABSOLUTE (__Interrupt56):ABSOLUTE (__DefaultInterrupt)
                  0x000086          0x4 LONG 0x764e DEFINED (__Interrupt57)?ABSOLUTE (__Interrupt57):ABSOLUTE (__DefaultInterrupt)
                  0x000088          0x4 LONG 0x764e DEFINED (__Interrupt58)?ABSOLUTE (__Interrupt58):ABSOLUTE (__DefaultInterrupt)
                  0x00008a          0x4 LONG 0x764e DEFINED (__Interrupt59)?ABSOLUTE (__Interrupt59):ABSOLUTE (__DefaultInterrupt)
                  0x00008c          0x4 LONG 0x764e DEFINED (__DCIInterrupt)?ABSOLUTE (__DCIInterrupt):ABSOLUTE (__DefaultInterrupt)
                  0x00008e          0x4 LONG 0x764e DEFINED (__DMA5Interrupt)?ABSOLUTE (__DMA5Interrupt):ABSOLUTE (__DefaultInterrupt)
                  0x000090          0x4 LONG 0x764e DEFINED (__RTCCInterrupt)?ABSOLUTE (__RTCCInterrupt):ABSOLUTE (__DefaultInterrupt)
                  0x000092          0x4 LONG 0x764e DEFINED (__Interrupt63)?ABSOLUTE (__Interrupt63):ABSOLUTE (__DefaultInterrupt)
                  0x000094          0x4 LONG 0x764e DEFINED (__Interrupt64)?ABSOLUTE (__Interrupt64):ABSOLUTE (__DefaultInterrupt)
                  0x000096          0x4 LONG 0x764e DEFINED (__U1ErrInterrupt)?ABSOLUTE (__U1ErrInterrupt):ABSOLUTE (__DefaultInterrupt)
                  0x000098          0x4 LONG 0x764e DEFINED (__U2ErrInterrupt)?ABSOLUTE (__U2ErrInterrupt):ABSOLUTE (__DefaultInterrupt)
                  0x00009a          0x4 LONG 0x764e DEFINED (__CRCInterrupt)?ABSOLUTE (__CRCInterrupt):ABSOLUTE (__DefaultInterrupt)
                  0x00009c          0x4 LONG 0x764e DEFINED (__DMA6Interrupt)?ABSOLUTE (__DMA6Interrupt):ABSOLUTE (__DefaultInterrupt)
                  0x00009e          0x4 LONG 0x764e DEFINED (__DMA7Interrupt)?ABSOLUTE (__DMA7Interrupt):ABSOLUTE (__DefaultInterrupt)
                  0x0000a0          0x4 LONG 0x764e DEFINED (__C1TxReqInterrupt)?ABSOLUTE (__C1TxReqInterrupt):ABSOLUTE (__DefaultInterrupt)
                  0x0000a2          0x4 LONG 0x764e DEFINED (__Interrupt71)?ABSOLUTE (__Interrupt71):ABSOLUTE (__DefaultInterrupt)
                  0x0000a4          0x4 LONG 0x764e DEFINED (__Interrupt72)?ABSOLUTE (__Interrupt72):ABSOLUTE (__DefaultInterrupt)
                  0x0000a6          0x4 LONG 0x764e DEFINED (__Interrupt73)?ABSOLUTE (__Interrupt73):ABSOLUTE (__DefaultInterrupt)
                  0x0000a8          0x4 LONG 0x764e DEFINED (__Interrupt74)?ABSOLUTE (__Interrupt74):ABSOLUTE (__DefaultInterrupt)
                  0x0000aa          0x4 LONG 0x764e DEFINED (__Interrupt75)?ABSOLUTE (__Interrupt75):ABSOLUTE (__DefaultInterrupt)
                  0x0000ac          0x4 LONG 0x764e DEFINED (__Interrupt76)?ABSOLUTE (__Interrupt76):ABSOLUTE (__DefaultInterrupt)
                  0x0000ae          0x4 LONG 0x764e DEFINED (__Interrupt77)?ABSOLUTE (__Interrupt77):ABSOLUTE (__DefaultInterrupt)
                  0x0000b0          0x4 LONG 0x764e DEFINED (__DAC1RInterrupt)?ABSOLUTE (__DAC1RInterrupt):ABSOLUTE (__DefaultInterrupt)
                  0x0000b2          0x4 LONG 0x745c DEFINED (__DAC1LInterrupt)?ABSOLUTE (__DAC1LInterrupt):ABSOLUTE (__DefaultInterrupt)
                  0x0000b4          0x4 LONG 0x764e DEFINED (__Interrupt80)?ABSOLUTE (__Interrupt80):ABSOLUTE (__DefaultInterrupt)
                  0x0000b6          0x4 LONG 0x764e DEFINED (__Interrupt81)?ABSOLUTE (__Interrupt81):ABSOLUTE (__DefaultInterrupt)
                  0x0000b8          0x4 LONG 0x764e DEFINED (__Interrupt82)?ABSOLUTE (__Interrupt82):ABSOLUTE (__DefaultInterrupt)
                  0x0000ba          0x4 LONG 0x764e DEFINED (__Interrupt83)?ABSOLUTE (__Interrupt83):ABSOLUTE (__DefaultInterrupt)
                  0x0000bc          0x4 LONG 0x764e DEFINED (__Interrupt84)?ABSOLUTE (__Interrupt84):ABSOLUTE (__DefaultInterrupt)
                  0x0000be          0x4 LONG 0x764e DEFINED (__Interrupt85)?ABSOLUTE (__Interrupt85):ABSOLUTE (__DefaultInterrupt)
                  0x0000c0          0x4 LONG 0x764e DEFINED (__Interrupt86)?ABSOLUTE (__Interrupt86):ABSOLUTE (__DefaultInterrupt)
                  0x0000c2          0x4 LONG 0x764e DEFINED (__Interrupt87)?ABSOLUTE (__Interrupt87):ABSOLUTE (__DefaultInterrupt)
                  0x0000c4          0x4 LONG 0x764e DEFINED (__Interrupt88)?ABSOLUTE (__Interrupt88):ABSOLUTE (__DefaultInterrupt)
                  0x0000c6          0x4 LONG 0x764e DEFINED (__Interrupt89)?ABSOLUTE (__Interrupt89):ABSOLUTE (__DefaultInterrupt)
                  0x0000c8          0x4 LONG 0x764e DEFINED (__Interrupt90)?ABSOLUTE (__Interrupt90):ABSOLUTE (__DefaultInterrupt)
                  0x0000ca          0x4 LONG 0x764e DEFINED (__Interrupt91)?ABSOLUTE (__Interrupt91):ABSOLUTE (__DefaultInterrupt)
                  0x0000cc          0x4 LONG 0x764e DEFINED (__Interrupt92)?ABSOLUTE (__Interrupt92):ABSOLUTE (__DefaultInterrupt)
                  0x0000ce          0x4 LONG 0x764e DEFINED (__Interrupt93)?ABSOLUTE (__Interrupt93):ABSOLUTE (__DefaultInterrupt)
                  0x0000d0          0x4 LONG 0x764e DEFINED (__Interrupt94)?ABSOLUTE (__Interrupt94):ABSOLUTE (__DefaultInterrupt)
                  0x0000d2          0x4 LONG 0x764e DEFINED (__Interrupt95)?ABSOLUTE (__Interrupt95):ABSOLUTE (__DefaultInterrupt)
                  0x0000d4          0x4 LONG 0x764e DEFINED (__Interrupt96)?ABSOLUTE (__Interrupt96):ABSOLUTE (__DefaultInterrupt)
                  0x0000d6          0x4 LONG 0x764e DEFINED (__Interrupt97)?ABSOLUTE (__Interrupt97):ABSOLUTE (__DefaultInterrupt)
                  0x0000d8          0x4 LONG 0x764e DEFINED (__Interrupt98)?ABSOLUTE (__Interrupt98):ABSOLUTE (__DefaultInterrupt)
                  0x0000da          0x4 LONG 0x764e DEFINED (__Interrupt99)?ABSOLUTE (__Interrupt99):ABSOLUTE (__DefaultInterrupt)
                  0x0000dc          0x4 LONG 0x764e DEFINED (__Interrupt100)?ABSOLUTE (__Interrupt100):ABSOLUTE (__DefaultInterrupt)
                  0x0000de          0x4 LONG 0x764e DEFINED (__Interrupt101)?ABSOLUTE (__Interrupt101):ABSOLUTE (__DefaultInterrupt)
                  0x0000e0          0x4 LONG 0x764e DEFINED (__Interrupt102)?ABSOLUTE (__Interrupt102):ABSOLUTE (__DefaultInterrupt)
                  0x0000e2          0x4 LONG 0x764e DEFINED (__Interrupt103)?ABSOLUTE (__Interrupt103):ABSOLUTE (__DefaultInterrupt)
                  0x0000e4          0x4 LONG 0x764e DEFINED (__Interrupt104)?ABSOLUTE (__Interrupt104):ABSOLUTE (__DefaultInterrupt)
                  0x0000e6          0x4 LONG 0x764e DEFINED (__Interrupt105)?ABSOLUTE (__Interrupt105):ABSOLUTE (__DefaultInterrupt)
                  0x0000e8          0x4 LONG 0x764e DEFINED (__Interrupt106)?ABSOLUTE (__Interrupt106):ABSOLUTE (__DefaultInterrupt)
                  0x0000ea          0x4 LONG 0x764e DEFINED (__Interrupt107)?ABSOLUTE (__Interrupt107):ABSOLUTE (__DefaultInterrupt)
                  0x0000ec          0x4 LONG 0x764e DEFINED (__Interrupt108)?ABSOLUTE (__Interrupt108):ABSOLUTE (__DefaultInterrupt)
                  0x0000ee          0x4 LONG 0x764e DEFINED (__Interrupt109)?ABSOLUTE (__Interrupt109):ABSOLUTE (__DefaultInterrupt)
                  0x0000f0          0x4 LONG 0x764e DEFINED (__Interrupt110)?ABSOLUTE (__Interrupt110):ABSOLUTE (__DefaultInterrupt)
                  0x0000f2          0x4 LONG 0x764e DEFINED (__Interrupt111)?ABSOLUTE (__Interrupt111):ABSOLUTE (__DefaultInterrupt)
                  0x0000f4          0x4 LONG 0x764e DEFINED (__Interrupt112)?ABSOLUTE (__Interrupt112):ABSOLUTE (__DefaultInterrupt)
                  0x0000f6          0x4 LONG 0x764e DEFINED (__Interrupt113)?ABSOLUTE (__Interrupt113):ABSOLUTE (__DefaultInterrupt)
                  0x0000f8          0x4 LONG 0x764e DEFINED (__Interrupt114)?ABSOLUTE (__Interrupt114):ABSOLUTE (__DefaultInterrupt)
                  0x0000fa          0x4 LONG 0x764e DEFINED (__Interrupt115)?ABSOLUTE (__Interrupt115):ABSOLUTE (__DefaultInterrupt)
                  0x0000fc          0x4 LONG 0x764e DEFINED (__Interrupt116)?ABSOLUTE (__Interrupt116):ABSOLUTE (__DefaultInterrupt)
                  0x0000fe          0x4 LONG 0x764e DEFINED (__Interrupt117)?ABSOLUTE (__Interrupt117):ABSOLUTE (__DefaultInterrupt)

.aivt             0x000104         0xfc
                  0x000104          0x4 LONG 0x764e DEFINED (__AltReservedTrap0)?ABSOLUTE (__AltReservedTrap0):DEFINED (__ReservedTrap0)?ABSOLUTE (__ReservedTrap0):ABSOLUTE (__DefaultInterrupt)
                  0x000106          0x4 LONG 0x7660 DEFINED (__AltOscillatorFail)?ABSOLUTE (__AltOscillatorFail):DEFINED (__OscillatorFail)?ABSOLUTE (__OscillatorFail):ABSOLUTE (__DefaultInterrupt)
                  0x000108          0x4 LONG 0x7672 DEFINED (__AltAddressError)?ABSOLUTE (__AltAddressError):DEFINED (__AddressError)?ABSOLUTE (__AddressError):ABSOLUTE (__DefaultInterrupt)
                  0x00010a          0x4 LONG 0x7678 DEFINED (__AltStackError)?ABSOLUTE (__AltStackError):DEFINED (__StackError)?ABSOLUTE (__StackError):ABSOLUTE (__DefaultInterrupt)
                  0x00010c          0x4 LONG 0x767e DEFINED (__AltMathError)?ABSOLUTE (__AltMathError):DEFINED (__MathError)?ABSOLUTE (__MathError):ABSOLUTE (__DefaultInterrupt)
                  0x00010e          0x4 LONG 0x764e DEFINED (__AltDMACError)?ABSOLUTE (__AltDMACError):DEFINED (__DMACError)?ABSOLUTE (__DMACError):ABSOLUTE (__DefaultInterrupt)
                  0x000110          0x4 LONG 0x764e DEFINED (__AltReservedTrap6)?ABSOLUTE (__AltReservedTrap6):DEFINED (__ReservedTrap6)?ABSOLUTE (__ReservedTrap6):ABSOLUTE (__DefaultInterrupt)
                  0x000112          0x4 LONG 0x764e DEFINED (__AltReservedTrap7)?ABSOLUTE (__AltReservedTrap7):DEFINED (__ReservedTrap7)?ABSOLUTE (__ReservedTrap7):ABSOLUTE (__DefaultInterrupt)
                  0x000114          0x4 LONG 0x764e DEFINED (__AltINT0Interrupt)?ABSOLUTE (__AltINT0Interrupt):DEFINED (__INT0Interrupt)?ABSOLUTE (__INT0Interrupt):ABSOLUTE (__DefaultInterrupt)
                  0x000116          0x4 LONG 0x764e DEFINED (__AltIC1Interrupt)?ABSOLUTE (__AltIC1Interrupt):DEFINED (__IC1Interrupt)?ABSOLUTE (__IC1Interrupt):ABSOLUTE (__DefaultInterrupt)
                  0x000118          0x4 LONG 0x764e DEFINED (__AltOC1Interrupt)?ABSOLUTE (__AltOC1Interrupt):DEFINED (__OC1Interrupt)?ABSOLUTE (__OC1Interrupt):ABSOLUTE (__DefaultInterrupt)
                  0x00011a          0x4 LONG 0x121c8 DEFINED (__AltT1Interrupt)?ABSOLUTE (__AltT1Interrupt):DEFINED (__T1Interrupt)?ABSOLUTE (__T1Interrupt):ABSOLUTE (__DefaultInterrupt)
                  0x00011c          0x4 LONG 0x764e DEFINED (__AltDMA0Interrupt)?ABSOLUTE (__AltDMA0Interrupt):DEFINED (__DMA0Interrupt)?ABSOLUTE (__DMA0Interrupt):ABSOLUTE (__DefaultInterrupt)
                  0x00011e          0x4 LONG 0x764e DEFINED (__AltIC2Interrupt)?ABSOLUTE (__AltIC2Interrupt):DEFINED (__IC2Interrupt)?ABSOLUTE (__IC2Interrupt):ABSOLUTE (__DefaultInterrupt)
                  0x000120          0x4 LONG 0x764e DEFINED (__AltOC2Interrupt)?ABSOLUTE (__AltOC2Interrupt):DEFINED (__OC2Interrupt)?ABSOLUTE (__OC2Interrupt):ABSOLUTE (__DefaultInterrupt)
                  0x000122          0x4 LONG 0x764e DEFINED (__AltT2Interrupt)?ABSOLUTE (__AltT2Interrupt):DEFINED (__T2Interrupt)?ABSOLUTE (__T2Interrupt):ABSOLUTE (__DefaultInterrupt)
                  0x000124          0x4 LONG 0x764e DEFINED (__AltT3Interrupt)?ABSOLUTE (__AltT3Interrupt):DEFINED (__T3Interrupt)?ABSOLUTE (__T3Interrupt):ABSOLUTE (__DefaultInterrupt)
                  0x000126          0x4 LONG 0x764e DEFINED (__AltSPI1ErrInterrupt)?ABSOLUTE (__AltSPI1ErrInterrupt):DEFINED (__SPI1ErrInterrupt)?ABSOLUTE (__SPI1ErrInterrupt):ABSOLUTE (__DefaultInterrupt)
                  0x000128          0x4 LONG 0x764e DEFINED (__AltSPI1Interrupt)?ABSOLUTE (__AltSPI1Interrupt):DEFINED (__SPI1Interrupt)?ABSOLUTE (__SPI1Interrupt):ABSOLUTE (__DefaultInterrupt)
                  0x00012a          0x4 LONG 0x10672 DEFINED (__AltU1RXInterrupt)?ABSOLUTE (__AltU1RXInterrupt):DEFINED (__U1RXInterrupt)?ABSOLUTE (__U1RXInterrupt):ABSOLUTE (__DefaultInterrupt)
                  0x00012c          0x4 LONG 0x106d0 DEFINED (__AltU1TXInterrupt)?ABSOLUTE (__AltU1TXInterrupt):DEFINED (__U1TXInterrupt)?ABSOLUTE (__U1TXInterrupt):ABSOLUTE (__DefaultInterrupt)
                  0x00012e          0x4 LONG 0x7092 DEFINED (__AltADC1Interrupt)?ABSOLUTE (__AltADC1Interrupt):DEFINED (__ADC1Interrupt)?ABSOLUTE (__ADC1Interrupt):ABSOLUTE (__DefaultInterrupt)
                  0x000130          0x4 LONG 0x764e DEFINED (__AltDMA1Interrupt)?ABSOLUTE (__AltDMA1Interrupt):DEFINED (__DMA1Interrupt)?ABSOLUTE (__DMA1Interrupt):ABSOLUTE (__DefaultInterrupt)
                  0x000132          0x4 LONG 0x764e DEFINED (__AltInterrupt15)?ABSOLUTE (__AltInterrupt15):DEFINED (__Interrupt15)?ABSOLUTE (__Interrupt15):ABSOLUTE (__DefaultInterrupt)
                  0x000134          0x4 LONG 0x764e DEFINED (__AltSI2C1Interrupt)?ABSOLUTE (__AltSI2C1Interrupt):DEFINED (__SI2C1Interrupt)?ABSOLUTE (__SI2C1Interrupt):ABSOLUTE (__DefaultInterrupt)
                  0x000136          0x4 LONG 0x764e DEFINED (__AltMI2C1Interrupt)?ABSOLUTE (__AltMI2C1Interrupt):DEFINED (__MI2C1Interrupt)?ABSOLUTE (__MI2C1Interrupt):ABSOLUTE (__DefaultInterrupt)
                  0x000138          0x4 LONG 0x764e DEFINED (__AltCMPInterrupt)?ABSOLUTE (__AltCMPInterrupt):DEFINED (__CMPInterrupt)?ABSOLUTE (__CMPInterrupt):ABSOLUTE (__DefaultInterrupt)
                  0x00013a          0x4 LONG 0x6e50 DEFINED (__AltCNInterrupt)?ABSOLUTE (__AltCNInterrupt):DEFINED (__CNInterrupt)?ABSOLUTE (__CNInterrupt):ABSOLUTE (__DefaultInterrupt)
                  0x00013c          0x4 LONG 0x764e DEFINED (__AltINT1Interrupt)?ABSOLUTE (__AltINT1Interrupt):DEFINED (__INT1Interrupt)?ABSOLUTE (__INT1Interrupt):ABSOLUTE (__DefaultInterrupt)
                  0x00013e          0x4 LONG 0x764e DEFINED (__AltInterrupt21)?ABSOLUTE (__AltInterrupt21):DEFINED (__Interrupt21)?ABSOLUTE (__Interrupt21):ABSOLUTE (__DefaultInterrupt)
                  0x000140          0x4 LONG 0x764e DEFINED (__AltIC7Interrupt)?ABSOLUTE (__AltIC7Interrupt):DEFINED (__IC7Interrupt)?ABSOLUTE (__IC7Interrupt):ABSOLUTE (__DefaultInterrupt)
                  0x000142          0x4 LONG 0x764e DEFINED (__AltIC8Interrupt)?ABSOLUTE (__AltIC8Interrupt):DEFINED (__IC8Interrupt)?ABSOLUTE (__IC8Interrupt):ABSOLUTE (__DefaultInterrupt)
                  0x000144          0x4 LONG 0x764e DEFINED (__AltDMA2Interrupt)?ABSOLUTE (__AltDMA2Interrupt):DEFINED (__DMA2Interrupt)?ABSOLUTE (__DMA2Interrupt):ABSOLUTE (__DefaultInterrupt)
                  0x000146          0x4 LONG 0x764e DEFINED (__AltOC3Interrupt)?ABSOLUTE (__AltOC3Interrupt):DEFINED (__OC3Interrupt)?ABSOLUTE (__OC3Interrupt):ABSOLUTE (__DefaultInterrupt)
                  0x000148          0x4 LONG 0x764e DEFINED (__AltOC4Interrupt)?ABSOLUTE (__AltOC4Interrupt):DEFINED (__OC4Interrupt)?ABSOLUTE (__OC4Interrupt):ABSOLUTE (__DefaultInterrupt)
                  0x00014a          0x4 LONG 0x764e DEFINED (__AltT4Interrupt)?ABSOLUTE (__AltT4Interrupt):DEFINED (__T4Interrupt)?ABSOLUTE (__T4Interrupt):ABSOLUTE (__DefaultInterrupt)
                  0x00014c          0x4 LONG 0x764e DEFINED (__AltT5Interrupt)?ABSOLUTE (__AltT5Interrupt):DEFINED (__T5Interrupt)?ABSOLUTE (__T5Interrupt):ABSOLUTE (__DefaultInterrupt)
                  0x00014e          0x4 LONG 0x764e DEFINED (__AltINT2Interrupt)?ABSOLUTE (__AltINT2Interrupt):DEFINED (__INT2Interrupt)?ABSOLUTE (__INT2Interrupt):ABSOLUTE (__DefaultInterrupt)
                  0x000150          0x4 LONG 0x106fe DEFINED (__AltU2RXInterrupt)?ABSOLUTE (__AltU2RXInterrupt):DEFINED (__U2RXInterrupt)?ABSOLUTE (__U2RXInterrupt):ABSOLUTE (__DefaultInterrupt)
                  0x000152          0x4 LONG 0x1075c DEFINED (__AltU2TXInterrupt)?ABSOLUTE (__AltU2TXInterrupt):DEFINED (__U2TXInterrupt)?ABSOLUTE (__U2TXInterrupt):ABSOLUTE (__DefaultInterrupt)
                  0x000154          0x4 LONG 0x764e DEFINED (__AltSPI2ErrInterrupt)?ABSOLUTE (__AltSPI2ErrInterrupt):DEFINED (__SPI2ErrInterrupt)?ABSOLUTE (__SPI2ErrInterrupt):ABSOLUTE (__DefaultInterrupt)
                  0x000156          0x4 LONG 0x764e DEFINED (__AltSPI2Interrupt)?ABSOLUTE (__AltSPI2Interrupt):DEFINED (__SPI2Interrupt)?ABSOLUTE (__SPI2Interrupt):ABSOLUTE (__DefaultInterrupt)
                  0x000158          0x4 LONG 0x764e DEFINED (__AltC1RxRdyInterrupt)?ABSOLUTE (__AltC1RxRdyInterrupt):DEFINED (__C1RxRdyInterrupt)?ABSOLUTE (__C1RxRdyInterrupt):ABSOLUTE (__DefaultInterrupt)
                  0x00015a          0x4 LONG 0x764e DEFINED (__AltC1Interrupt)?ABSOLUTE (__AltC1Interrupt):DEFINED (__C1Interrupt)?ABSOLUTE (__C1Interrupt):ABSOLUTE (__DefaultInterrupt)
                  0x00015c          0x4 LONG 0x764e DEFINED (__AltDMA3Interrupt)?ABSOLUTE (__AltDMA3Interrupt):DEFINED (__DMA3Interrupt)?ABSOLUTE (__DMA3Interrupt):ABSOLUTE (__DefaultInterrupt)
                  0x00015e          0x4 LONG 0x764e DEFINED (__AltInterrupt37)?ABSOLUTE (__AltInterrupt37):DEFINED (__Interrupt37)?ABSOLUTE (__Interrupt37):ABSOLUTE (__DefaultInterrupt)
                  0x000160          0x4 LONG 0x764e DEFINED (__AltInterrupt38)?ABSOLUTE (__AltInterrupt38):DEFINED (__Interrupt38)?ABSOLUTE (__Interrupt38):ABSOLUTE (__DefaultInterrupt)
                  0x000162          0x4 LONG 0x764e DEFINED (__AltInterrupt39)?ABSOLUTE (__AltInterrupt39):DEFINED (__Interrupt39)?ABSOLUTE (__Interrupt39):ABSOLUTE (__DefaultInterrupt)
                  0x000164          0x4 LONG 0x764e DEFINED (__AltInterrupt40)?ABSOLUTE (__AltInterrupt40):DEFINED (__Interrupt40)?ABSOLUTE (__Interrupt40):ABSOLUTE (__DefaultInterrupt)
                  0x000166          0x4 LONG 0x764e DEFINED (__AltInterrupt41)?ABSOLUTE (__AltInterrupt41):DEFINED (__Interrupt41)?ABSOLUTE (__Interrupt41):ABSOLUTE (__DefaultInterrupt)
                  0x000168          0x4 LONG 0x764e DEFINED (__AltInterrupt42)?ABSOLUTE (__AltInterrupt42):DEFINED (__Interrupt42)?ABSOLUTE (__Interrupt42):ABSOLUTE (__DefaultInterrupt)
                  0x00016a          0x4 LONG 0x764e DEFINED (__AltInterrupt43)?ABSOLUTE (__AltInterrupt43):DEFINED (__Interrupt43)?ABSOLUTE (__Interrupt43):ABSOLUTE (__DefaultInterrupt)
                  0x00016c          0x4 LONG 0x764e DEFINED (__AltInterrupt44)?ABSOLUTE (__AltInterrupt44):DEFINED (__Interrupt44)?ABSOLUTE (__Interrupt44):ABSOLUTE (__DefaultInterrupt)
                  0x00016e          0x4 LONG 0x764e DEFINED (__AltPMPInterrupt)?ABSOLUTE (__AltPMPInterrupt):DEFINED (__PMPInterrupt)?ABSOLUTE (__PMPInterrupt):ABSOLUTE (__DefaultInterrupt)
                  0x000170          0x4 LONG 0x764e DEFINED (__AltDMA4Interrupt)?ABSOLUTE (__AltDMA4Interrupt):DEFINED (__DMA4Interrupt)?ABSOLUTE (__DMA4Interrupt):ABSOLUTE (__DefaultInterrupt)
                  0x000172          0x4 LONG 0x764e DEFINED (__AltInterrupt47)?ABSOLUTE (__AltInterrupt47):DEFINED (__Interrupt47)?ABSOLUTE (__Interrupt47):ABSOLUTE (__DefaultInterrupt)
                  0x000174          0x4 LONG 0x764e DEFINED (__AltInterrupt48)?ABSOLUTE (__AltInterrupt48):DEFINED (__Interrupt48)?ABSOLUTE (__Interrupt48):ABSOLUTE (__DefaultInterrupt)
                  0x000176          0x4 LONG 0x764e DEFINED (__AltInterrupt49)?ABSOLUTE (__AltInterrupt49):DEFINED (__Interrupt49)?ABSOLUTE (__Interrupt49):ABSOLUTE (__DefaultInterrupt)
                  0x000178          0x4 LONG 0x764e DEFINED (__AltInterrupt50)?ABSOLUTE (__AltInterrupt50):DEFINED (__Interrupt50)?ABSOLUTE (__Interrupt50):ABSOLUTE (__DefaultInterrupt)
                  0x00017a          0x4 LONG 0x764e DEFINED (__AltInterrupt51)?ABSOLUTE (__AltInterrupt51):DEFINED (__Interrupt51)?ABSOLUTE (__Interrupt51):ABSOLUTE (__DefaultInterrupt)
                  0x00017c          0x4 LONG 0x764e DEFINED (__AltInterrupt52)?ABSOLUTE (__AltInterrupt52):DEFINED (__Interrupt52)?ABSOLUTE (__Interrupt52):ABSOLUTE (__DefaultInterrupt)
                  0x00017e          0x4 LONG 0x764e DEFINED (__AltInterrupt53)?ABSOLUTE (__AltInterrupt53):DEFINED (__Interrupt53)?ABSOLUTE (__Interrupt53):ABSOLUTE (__DefaultInterrupt)
                  0x000180          0x4 LONG 0x764e DEFINED (__AltInterrupt54)?ABSOLUTE (__AltInterrupt54):DEFINED (__Interrupt54)?ABSOLUTE (__Interrupt54):ABSOLUTE (__DefaultInterrupt)
                  0x000182          0x4 LONG 0x764e DEFINED (__AltInterrupt55)?ABSOLUTE (__AltInterrupt55):DEFINED (__Interrupt55)?ABSOLUTE (__Interrupt55):ABSOLUTE (__DefaultInterrupt)
                  0x000184          0x4 LONG 0x764e DEFINED (__AltInterrupt56)?ABSOLUTE (__AltInterrupt56):DEFINED (__Interrupt56)?ABSOLUTE (__Interrupt56):ABSOLUTE (__DefaultInterrupt)
                  0x000186          0x4 LONG 0x764e DEFINED (__AltInterrupt57)?ABSOLUTE (__AltInterrupt57):DEFINED (__Interrupt57)?ABSOLUTE (__Interrupt57):ABSOLUTE (__DefaultInterrupt)
                  0x000188          0x4 LONG 0x764e DEFINED (__AltInterrupt58)?ABSOLUTE (__AltInterrupt58):DEFINED (__Interrupt58)?ABSOLUTE (__Interrupt58):ABSOLUTE (__DefaultInterrupt)
                  0x00018a          0x4 LONG 0x764e DEFINED (__AltInterrupt59)?ABSOLUTE (__AltInterrupt59):DEFINED (__Interrupt59)?ABSOLUTE (__Interrupt59):ABSOLUTE (__DefaultInterrupt)
                  0x00018c          0x4 LONG 0x764e DEFINED (__AltDCIInterrupt)?ABSOLUTE (__AltDCIInterrupt):DEFINED (__DCIInterrupt)?ABSOLUTE (__DCIInterrupt):ABSOLUTE (__DefaultInterrupt)
                  0x00018e          0x4 LONG 0x764e DEFINED (__AltDMA5Interrupt)?ABSOLUTE (__AltDMA5Interrupt):DEFINED (__DMA5Interrupt)?ABSOLUTE (__DMA5Interrupt):ABSOLUTE (__DefaultInterrupt)
                  0x000190          0x4 LONG 0x764e DEFINED (__AltRTCCInterrupt)?ABSOLUTE (__AltRTCCInterrupt):DEFINED (__RTCCInterrupt)?ABSOLUTE (__RTCCInterrupt):ABSOLUTE (__DefaultInterrupt)
                  0x000192          0x4 LONG 0x764e DEFINED (__AltInterrupt63)?ABSOLUTE (__AltInterrupt63):DEFINED (__Interrupt63)?ABSOLUTE (__Interrupt63):ABSOLUTE (__DefaultInterrupt)
                  0x000194          0x4 LONG 0x764e DEFINED (__AltInterrupt64)?ABSOLUTE (__AltInterrupt64):DEFINED (__Interrupt64)?ABSOLUTE (__Interrupt64):ABSOLUTE (__DefaultInterrupt)
                  0x000196          0x4 LONG 0x764e DEFINED (__AltU1ErrInterrupt)?ABSOLUTE (__AltU1ErrInterrupt):DEFINED (__U1ErrInterrupt)?ABSOLUTE (__U1ErrInterrupt):ABSOLUTE (__DefaultInterrupt)
                  0x000198          0x4 LONG 0x764e DEFINED (__AltU2ErrInterrupt)?ABSOLUTE (__AltU2ErrInterrupt):DEFINED (__U2ErrInterrupt)?ABSOLUTE (__U2ErrInterrupt):ABSOLUTE (__DefaultInterrupt)
                  0x00019a          0x4 LONG 0x764e DEFINED (__AltCRCInterrupt)?ABSOLUTE (__AltCRCInterrupt):DEFINED (__CRCInterrupt)?ABSOLUTE (__CRCInterrupt):ABSOLUTE (__DefaultInterrupt)
                  0x00019c          0x4 LONG 0x764e DEFINED (__AltDMA6Interrupt)?ABSOLUTE (__AltDMA6Interrupt):DEFINED (__DMA6Interrupt)?ABSOLUTE (__DMA6Interrupt):ABSOLUTE (__DefaultInterrupt)
                  0x00019e          0x4 LONG 0x764e DEFINED (__AltDMA7Interrupt)?ABSOLUTE (__AltDMA7Interrupt):DEFINED (__DMA7Interrupt)?ABSOLUTE (__DMA7Interrupt):ABSOLUTE (__DefaultInterrupt)
                  0x0001a0          0x4 LONG 0x764e DEFINED (__AltC1TxReqInterrupt)?ABSOLUTE (__AltC1TxReqInterrupt):DEFINED (__C1TxReqInterrupt)?ABSOLUTE (__C1TxReqInterrupt):ABSOLUTE (__DefaultInterrupt)
                  0x0001a2          0x4 LONG 0x764e DEFINED (__AltInterrupt71)?ABSOLUTE (__AltInterrupt71):DEFINED (__Interrupt71)?ABSOLUTE (__Interrupt71):ABSOLUTE (__DefaultInterrupt)
                  0x0001a4          0x4 LONG 0x764e DEFINED (__AltInterrupt72)?ABSOLUTE (__AltInterrupt72):DEFINED (__Interrupt72)?ABSOLUTE (__Interrupt72):ABSOLUTE (__DefaultInterrupt)
                  0x0001a6          0x4 LONG 0x764e DEFINED (__AltInterrupt73)?ABSOLUTE (__AltInterrupt73):DEFINED (__Interrupt73)?ABSOLUTE (__Interrupt73):ABSOLUTE (__DefaultInterrupt)
                  0x0001a8          0x4 LONG 0x764e DEFINED (__AltInterrupt74)?ABSOLUTE (__AltInterrupt74):DEFINED (__Interrupt74)?ABSOLUTE (__Interrupt74):ABSOLUTE (__DefaultInterrupt)
                  0x0001aa          0x4 LONG 0x764e DEFINED (__AltInterrupt75)?ABSOLUTE (__AltInterrupt75):DEFINED (__Interrupt75)?ABSOLUTE (__Interrupt75):ABSOLUTE (__DefaultInterrupt)
                  0x0001ac          0x4 LONG 0x764e DEFINED (__AltInterrupt76)?ABSOLUTE (__AltInterrupt76):DEFINED (__Interrupt76)?ABSOLUTE (__Interrupt76):ABSOLUTE (__DefaultInterrupt)
                  0x0001ae          0x4 LONG 0x764e DEFINED (__AltInterrupt77)?ABSOLUTE (__AltInterrupt77):DEFINED (__Interrupt77)?ABSOLUTE (__Interrupt77):ABSOLUTE (__DefaultInterrupt)
                  0x0001b0          0x4 LONG 0x764e DEFINED (__AltDAC1RInterrupt)?ABSOLUTE (__AltDAC1RInterrupt):DEFINED (__DAC1RInterrupt)?ABSOLUTE (__DAC1RInterrupt):ABSOLUTE (__DefaultInterrupt)
                  0x0001b2          0x4 LONG 0x745c DEFINED (__AltDAC1LInterrupt)?ABSOLUTE (__AltDAC1LInterrupt):DEFINED (__DAC1LInterrupt)?ABSOLUTE (__DAC1LInterrupt):ABSOLUTE (__DefaultInterrupt)
                  0x0001b4          0x4 LONG 0x764e DEFINED (__AltInterrupt80)?ABSOLUTE (__AltInterrupt80):DEFINED (__Interrupt80)?ABSOLUTE (__Interrupt80):ABSOLUTE (__DefaultInterrupt)
                  0x0001b6          0x4 LONG 0x764e DEFINED (__AltInterrupt81)?ABSOLUTE (__AltInterrupt81):DEFINED (__Interrupt81)?ABSOLUTE (__Interrupt81):ABSOLUTE (__DefaultInterrupt)
                  0x0001b8          0x4 LONG 0x764e DEFINED (__AltInterrupt82)?ABSOLUTE (__AltInterrupt82):DEFINED (__Interrupt82)?ABSOLUTE (__Interrupt82):ABSOLUTE (__DefaultInterrupt)
                  0x0001ba          0x4 LONG 0x764e DEFINED (__AltInterrupt83)?ABSOLUTE (__AltInterrupt83):DEFINED (__Interrupt83)?ABSOLUTE (__Interrupt83):ABSOLUTE (__DefaultInterrupt)
                  0x0001bc          0x4 LONG 0x764e DEFINED (__AltInterrupt84)?ABSOLUTE (__AltInterrupt84):DEFINED (__Interrupt84)?ABSOLUTE (__Interrupt84):ABSOLUTE (__DefaultInterrupt)
                  0x0001be          0x4 LONG 0x764e DEFINED (__AltInterrupt85)?ABSOLUTE (__AltInterrupt85):DEFINED (__Interrupt85)?ABSOLUTE (__Interrupt85):ABSOLUTE (__DefaultInterrupt)
                  0x0001c0          0x4 LONG 0x764e DEFINED (__AltInterrupt86)?ABSOLUTE (__AltInterrupt86):DEFINED (__Interrupt86)?ABSOLUTE (__Interrupt86):ABSOLUTE (__DefaultInterrupt)
                  0x0001c2          0x4 LONG 0x764e DEFINED (__AltInterrupt87)?ABSOLUTE (__AltInterrupt87):DEFINED (__Interrupt87)?ABSOLUTE (__Interrupt87):ABSOLUTE (__DefaultInterrupt)
                  0x0001c4          0x4 LONG 0x764e DEFINED (__AltInterrupt88)?ABSOLUTE (__AltInterrupt88):DEFINED (__Interrupt88)?ABSOLUTE (__Interrupt88):ABSOLUTE (__DefaultInterrupt)
                  0x0001c6          0x4 LONG 0x764e DEFINED (__AltInterrupt89)?ABSOLUTE (__AltInterrupt89):DEFINED (__Interrupt89)?ABSOLUTE (__Interrupt89):ABSOLUTE (__DefaultInterrupt)
                  0x0001c8          0x4 LONG 0x764e DEFINED (__AltInterrupt90)?ABSOLUTE (__AltInterrupt90):DEFINED (__Interrupt90)?ABSOLUTE (__Interrupt90):ABSOLUTE (__DefaultInterrupt)
                  0x0001ca          0x4 LONG 0x764e DEFINED (__AltInterrupt91)?ABSOLUTE (__AltInterrupt91):DEFINED (__Interrupt91)?ABSOLUTE (__Interrupt91):ABSOLUTE (__DefaultInterrupt)
                  0x0001cc          0x4 LONG 0x764e DEFINED (__AltInterrupt92)?ABSOLUTE (__AltInterrupt92):DEFINED (__Interrupt92)?ABSOLUTE (__Interrupt92):ABSOLUTE (__DefaultInterrupt)
                  0x0001ce          0x4 LONG 0x764e DEFINED (__AltInterrupt93)?ABSOLUTE (__AltInterrupt93):DEFINED (__Interrupt93)?ABSOLUTE (__Interrupt93):ABSOLUTE (__DefaultInterrupt)
                  0x0001d0          0x4 LONG 0x764e DEFINED (__AltInterrupt94)?ABSOLUTE (__AltInterrupt94):DEFINED (__Interrupt94)?ABSOLUTE (__Interrupt94):ABSOLUTE (__DefaultInterrupt)
                  0x0001d2          0x4 LONG 0x764e DEFINED (__AltInterrupt95)?ABSOLUTE (__AltInterrupt95):DEFINED (__Interrupt95)?ABSOLUTE (__Interrupt95):ABSOLUTE (__DefaultInterrupt)
                  0x0001d4          0x4 LONG 0x764e DEFINED (__AltInterrupt96)?ABSOLUTE (__AltInterrupt96):DEFINED (__Interrupt96)?ABSOLUTE (__Interrupt96):ABSOLUTE (__DefaultInterrupt)
                  0x0001d6          0x4 LONG 0x764e DEFINED (__AltInterrupt97)?ABSOLUTE (__AltInterrupt97):DEFINED (__Interrupt97)?ABSOLUTE (__Interrupt97):ABSOLUTE (__DefaultInterrupt)
                  0x0001d8          0x4 LONG 0x764e DEFINED (__AltInterrupt98)?ABSOLUTE (__AltInterrupt98):DEFINED (__Interrupt98)?ABSOLUTE (__Interrupt98):ABSOLUTE (__DefaultInterrupt)
                  0x0001da          0x4 LONG 0x764e DEFINED (__AltInterrupt99)?ABSOLUTE (__AltInterrupt99):DEFINED (__Interrupt99)?ABSOLUTE (__Interrupt99):ABSOLUTE (__DefaultInterrupt)
                  0x0001dc          0x4 LONG 0x764e DEFINED (__AltInterrupt100)?ABSOLUTE (__AltInterrupt100):DEFINED (__Interrupt100)?ABSOLUTE (__Interrupt100):ABSOLUTE (__DefaultInterrupt)
                  0x0001de          0x4 LONG 0x764e DEFINED (__AltInterrupt101)?ABSOLUTE (__AltInterrupt101):DEFINED (__Interrupt101)?ABSOLUTE (__Interrupt101):ABSOLUTE (__DefaultInterrupt)
                  0x0001e0          0x4 LONG 0x764e DEFINED (__AltInterrupt102)?ABSOLUTE (__AltInterrupt102):DEFINED (__Interrupt102)?ABSOLUTE (__Interrupt102):ABSOLUTE (__DefaultInterrupt)
                  0x0001e2          0x4 LONG 0x764e DEFINED (__AltInterrupt103)?ABSOLUTE (__AltInterrupt103):DEFINED (__Interrupt103)?ABSOLUTE (__Interrupt103):ABSOLUTE (__DefaultInterrupt)
                  0x0001e4          0x4 LONG 0x764e DEFINED (__AltInterrupt104)?ABSOLUTE (__AltInterrupt104):DEFINED (__Interrupt104)?ABSOLUTE (__Interrupt104):ABSOLUTE (__DefaultInterrupt)
                  0x0001e6          0x4 LONG 0x764e DEFINED (__AltInterrupt105)?ABSOLUTE (__AltInterrupt105):DEFINED (__Interrupt105)?ABSOLUTE (__Interrupt105):ABSOLUTE (__DefaultInterrupt)
                  0x0001e8          0x4 LONG 0x764e DEFINED (__AltInterrupt106)?ABSOLUTE (__AltInterrupt106):DEFINED (__Interrupt106)?ABSOLUTE (__Interrupt106):ABSOLUTE (__DefaultInterrupt)
                  0x0001ea          0x4 LONG 0x764e DEFINED (__AltInterrupt107)?ABSOLUTE (__AltInterrupt107):DEFINED (__Interrupt107)?ABSOLUTE (__Interrupt107):ABSOLUTE (__DefaultInterrupt)
                  0x0001ec          0x4 LONG 0x764e DEFINED (__AltInterrupt108)?ABSOLUTE (__AltInterrupt108):DEFINED (__Interrupt108)?ABSOLUTE (__Interrupt108):ABSOLUTE (__DefaultInterrupt)
                  0x0001ee          0x4 LONG 0x764e DEFINED (__AltInterrupt109)?ABSOLUTE (__AltInterrupt109):DEFINED (__Interrupt109)?ABSOLUTE (__Interrupt109):ABSOLUTE (__DefaultInterrupt)
                  0x0001f0          0x4 LONG 0x764e DEFINED (__AltInterrupt110)?ABSOLUTE (__AltInterrupt110):DEFINED (__Interrupt110)?ABSOLUTE (__Interrupt110):ABSOLUTE (__DefaultInterrupt)
                  0x0001f2          0x4 LONG 0x764e DEFINED (__AltInterrupt111)?ABSOLUTE (__AltInterrupt111):DEFINED (__Interrupt111)?ABSOLUTE (__Interrupt111):ABSOLUTE (__DefaultInterrupt)
                  0x0001f4          0x4 LONG 0x764e DEFINED (__AltInterrupt112)?ABSOLUTE (__AltInterrupt112):DEFINED (__Interrupt112)?ABSOLUTE (__Interrupt112):ABSOLUTE (__DefaultInterrupt)
                  0x0001f6          0x4 LONG 0x764e DEFINED (__AltInterrupt113)?ABSOLUTE (__AltInterrupt113):DEFINED (__Interrupt113)?ABSOLUTE (__Interrupt113):ABSOLUTE (__DefaultInterrupt)
                  0x0001f8          0x4 LONG 0x764e DEFINED (__AltInterrupt114)?ABSOLUTE (__AltInterrupt114):DEFINED (__Interrupt114)?ABSOLUTE (__Interrupt114):ABSOLUTE (__DefaultInterrupt)
                  0x0001fa          0x4 LONG 0x764e DEFINED (__AltInterrupt115)?ABSOLUTE (__AltInterrupt115):DEFINED (__Interrupt115)?ABSOLUTE (__Interrupt115):ABSOLUTE (__DefaultInterrupt)
                  0x0001fc          0x4 LONG 0x764e DEFINED (__AltInterrupt116)?ABSOLUTE (__AltInterrupt116):DEFINED (__Interrupt116)?ABSOLUTE (__Interrupt116):ABSOLUTE (__DefaultInterrupt)
                  0x0001fe          0x4 LONG 0x764e DEFINED (__AltInterrupt117)?ABSOLUTE (__AltInterrupt117):DEFINED (__Interrupt117)?ABSOLUTE (__Interrupt117):ABSOLUTE (__DefaultInterrupt)
                    0x0000                  WREG0 = 0x0
                    0x0000                  _WREG0 = 0x0
                    0x0002                  WREG1 = 0x2
                    0x0002                  _WREG1 = 0x2
                    0x0004                  WREG2 = 0x4
                    0x0004                  _WREG2 = 0x4
                    0x0006                  WREG3 = 0x6
                    0x0006                  _WREG3 = 0x6
                    0x0008                  WREG4 = 0x8
                    0x0008                  _WREG4 = 0x8
                    0x000a                  WREG5 = 0xa
                    0x000a                  _WREG5 = 0xa
                    0x000c                  WREG6 = 0xc
                    0x000c                  _WREG6 = 0xc
                    0x000e                  WREG7 = 0xe
                    0x000e                  _WREG7 = 0xe
                    0x0010                  WREG8 = 0x10
                    0x0010                  _WREG8 = 0x10
                    0x0012                  WREG9 = 0x12
                    0x0012                  _WREG9 = 0x12
                    0x0014                  WREG10 = 0x14
                    0x0014                  _WREG10 = 0x14
                    0x0016                  WREG11 = 0x16
                    0x0016                  _WREG11 = 0x16
                    0x0018                  WREG12 = 0x18
                    0x0018                  _WREG12 = 0x18
                    0x001a                  WREG13 = 0x1a
                    0x001a                  _WREG13 = 0x1a
                    0x001c                  WREG14 = 0x1c
                    0x001c                  _WREG14 = 0x1c
                    0x001e                  WREG15 = 0x1e
                    0x001e                  _WREG15 = 0x1e
                    0x0020                  SPLIM = 0x20
                    0x0020                  _SPLIM = 0x20
                    0x0022                  ACCAL = 0x22
                    0x0022                  _ACCAL = 0x22
                    0x0024                  ACCAH = 0x24
                    0x0024                  _ACCAH = 0x24
                    0x0026                  ACCAU = 0x26
                    0x0026                  _ACCAU = 0x26
                    0x0028                  ACCBL = 0x28
                    0x0028                  _ACCBL = 0x28
                    0x002a                  ACCBH = 0x2a
                    0x002a                  _ACCBH = 0x2a
                    0x002c                  ACCBU = 0x2c
                    0x002c                  _ACCBU = 0x2c
                    0x002e                  PCL = 0x2e
                    0x002e                  _PCL = 0x2e
                    0x0030                  PCH = 0x30
                    0x0030                  _PCH = 0x30
                    0x0032                  TBLPAG = 0x32
                    0x0032                  _TBLPAG = 0x32
                    0x0034                  PSVPAG = 0x34
                    0x0034                  _PSVPAG = 0x34
                    0x0036                  RCOUNT = 0x36
                    0x0036                  _RCOUNT = 0x36
                    0x0038                  DCOUNT = 0x38
                    0x0038                  _DCOUNT = 0x38
                    0x003a                  DOSTARTL = 0x3a
                    0x003a                  _DOSTARTL = 0x3a
                    0x003c                  DOSTARTH = 0x3c
                    0x003c                  _DOSTARTH = 0x3c
                    0x003e                  DOENDL = 0x3e
                    0x003e                  _DOENDL = 0x3e
                    0x0040                  DOENDH = 0x40
                    0x0040                  _DOENDH = 0x40
                    0x0042                  SR = 0x42
                    0x0042                  _SR = 0x42
                    0x0042                  _SRbits = 0x42
                    0x0044                  CORCON = 0x44
                    0x0044                  _CORCON = 0x44
                    0x0044                  _CORCONbits = 0x44
                    0x0046                  MODCON = 0x46
                    0x0046                  _MODCON = 0x46
                    0x0046                  _MODCONbits = 0x46
                    0x0048                  XMODSRT = 0x48
                    0x0048                  _XMODSRT = 0x48
                    0x004a                  XMODEND = 0x4a
                    0x004a                  _XMODEND = 0x4a
                    0x004c                  YMODSRT = 0x4c
                    0x004c                  _YMODSRT = 0x4c
                    0x004e                  YMODEND = 0x4e
                    0x004e                  _YMODEND = 0x4e
                    0x0050                  XBREV = 0x50
                    0x0050                  _XBREV = 0x50
                    0x0050                  _XBREVbits = 0x50
                    0x0052                  DISICNT = 0x52
                    0x0052                  _DISICNT = 0x52
                    0x0060                  CNEN1 = 0x60
                    0x0060                  _CNEN1 = 0x60
                    0x0060                  _CNEN1bits = 0x60
                    0x0062                  CNEN2 = 0x62
                    0x0062                  _CNEN2 = 0x62
                    0x0062                  _CNEN2bits = 0x62
                    0x0068                  CNPU1 = 0x68
                    0x0068                  _CNPU1 = 0x68
                    0x0068                  _CNPU1bits = 0x68
                    0x006a                  CNPU2 = 0x6a
                    0x006a                  _CNPU2 = 0x6a
                    0x006a                  _CNPU2bits = 0x6a
                    0x0080                  INTCON1 = 0x80
                    0x0080                  _INTCON1 = 0x80
                    0x0080                  _INTCON1bits = 0x80
                    0x0082                  INTCON2 = 0x82
                    0x0082                  _INTCON2 = 0x82
                    0x0082                  _INTCON2bits = 0x82
                    0x0084                  IFS0 = 0x84
                    0x0084                  _IFS0 = 0x84
                    0x0084                  _IFS0bits = 0x84
                    0x0086                  IFS1 = 0x86
                    0x0086                  _IFS1 = 0x86
                    0x0086                  _IFS1bits = 0x86
                    0x0088                  IFS2 = 0x88
                    0x0088                  _IFS2 = 0x88
                    0x0088                  _IFS2bits = 0x88
                    0x008a                  IFS3 = 0x8a
                    0x008a                  _IFS3 = 0x8a
                    0x008a                  _IFS3bits = 0x8a
                    0x008c                  IFS4 = 0x8c
                    0x008c                  _IFS4 = 0x8c
                    0x008c                  _IFS4bits = 0x8c
                    0x0094                  IEC0 = 0x94
                    0x0094                  _IEC0 = 0x94
                    0x0094                  _IEC0bits = 0x94
                    0x0096                  IEC1 = 0x96
                    0x0096                  _IEC1 = 0x96
                    0x0096                  _IEC1bits = 0x96
                    0x0098                  IEC2 = 0x98
                    0x0098                  _IEC2 = 0x98
                    0x0098                  _IEC2bits = 0x98
                    0x009a                  IEC3 = 0x9a
                    0x009a                  _IEC3 = 0x9a
                    0x009a                  _IEC3bits = 0x9a
                    0x009c                  IEC4 = 0x9c
                    0x009c                  _IEC4 = 0x9c
                    0x009c                  _IEC4bits = 0x9c
                    0x00a4                  IPC0 = 0xa4
                    0x00a4                  _IPC0 = 0xa4
                    0x00a4                  _IPC0bits = 0xa4
                    0x00a6                  IPC1 = 0xa6
                    0x00a6                  _IPC1 = 0xa6
                    0x00a6                  _IPC1bits = 0xa6
                    0x00a8                  IPC2 = 0xa8
                    0x00a8                  _IPC2 = 0xa8
                    0x00a8                  _IPC2bits = 0xa8
                    0x00aa                  IPC3 = 0xaa
                    0x00aa                  _IPC3 = 0xaa
                    0x00aa                  _IPC3bits = 0xaa
                    0x00ac                  IPC4 = 0xac
                    0x00ac                  _IPC4 = 0xac
                    0x00ac                  _IPC4bits = 0xac
                    0x00ae                  IPC5 = 0xae
                    0x00ae                  _IPC5 = 0xae
                    0x00ae                  _IPC5bits = 0xae
                    0x00b0                  IPC6 = 0xb0
                    0x00b0                  _IPC6 = 0xb0
                    0x00b0                  _IPC6bits = 0xb0
                    0x00b2                  IPC7 = 0xb2
                    0x00b2                  _IPC7 = 0xb2
                    0x00b2                  _IPC7bits = 0xb2
                    0x00b4                  IPC8 = 0xb4
                    0x00b4                  _IPC8 = 0xb4
                    0x00b4                  _IPC8bits = 0xb4
                    0x00b6                  IPC9 = 0xb6
                    0x00b6                  _IPC9 = 0xb6
                    0x00b6                  _IPC9bits = 0xb6
                    0x00ba                  IPC11 = 0xba
                    0x00ba                  _IPC11 = 0xba
                    0x00ba                  _IPC11bits = 0xba
                    0x00c0                  IPC14 = 0xc0
                    0x00c0                  _IPC14 = 0xc0
                    0x00c0                  _IPC14bits = 0xc0
                    0x00c2                  IPC15 = 0xc2
                    0x00c2                  _IPC15 = 0xc2
                    0x00c2                  _IPC15bits = 0xc2
                    0x00c4                  IPC16 = 0xc4
                    0x00c4                  _IPC16 = 0xc4
                    0x00c4                  _IPC16bits = 0xc4
                    0x00c6                  IPC17 = 0xc6
                    0x00c6                  _IPC17 = 0xc6
                    0x00c6                  _IPC17bits = 0xc6
                    0x00ca                  IPC19 = 0xca
                    0x00ca                  _IPC19 = 0xca
                    0x00ca                  _IPC19bits = 0xca
                    0x00e0                  INTTREG = 0xe0
                    0x00e0                  _INTTREG = 0xe0
                    0x00e0                  _INTTREGbits = 0xe0
                    0x0100                  TMR1 = 0x100
                    0x0100                  _TMR1 = 0x100
                    0x0102                  PR1 = 0x102
                    0x0102                  _PR1 = 0x102
                    0x0104                  T1CON = 0x104
                    0x0104                  _T1CON = 0x104
                    0x0104                  _T1CONbits = 0x104
                    0x0106                  TMR2 = 0x106
                    0x0106                  _TMR2 = 0x106
                    0x0108                  TMR3HLD = 0x108
                    0x0108                  _TMR3HLD = 0x108
                    0x010a                  TMR3 = 0x10a
                    0x010a                  _TMR3 = 0x10a
                    0x010c                  PR2 = 0x10c
                    0x010c                  _PR2 = 0x10c
                    0x010e                  PR3 = 0x10e
                    0x010e                  _PR3 = 0x10e
                    0x0110                  T2CON = 0x110
                    0x0110                  _T2CON = 0x110
                    0x0110                  _T2CONbits = 0x110
                    0x0112                  T3CON = 0x112
                    0x0112                  _T3CON = 0x112
                    0x0112                  _T3CONbits = 0x112
                    0x0114                  TMR4 = 0x114
                    0x0114                  _TMR4 = 0x114
                    0x0116                  TMR5HLD = 0x116
                    0x0116                  _TMR5HLD = 0x116
                    0x0118                  TMR5 = 0x118
                    0x0118                  _TMR5 = 0x118
                    0x011a                  PR4 = 0x11a
                    0x011a                  _PR4 = 0x11a
                    0x011c                  PR5 = 0x11c
                    0x011c                  _PR5 = 0x11c
                    0x011e                  T4CON = 0x11e
                    0x011e                  _T4CON = 0x11e
                    0x011e                  _T4CONbits = 0x11e
                    0x0120                  T5CON = 0x120
                    0x0120                  _T5CON = 0x120
                    0x0120                  _T5CONbits = 0x120
                    0x0140                  IC1BUF = 0x140
                    0x0140                  _IC1BUF = 0x140
                    0x0142                  IC1CON = 0x142
                    0x0142                  _IC1CON = 0x142
                    0x0142                  _IC1CONbits = 0x142
                    0x0144                  IC2BUF = 0x144
                    0x0144                  _IC2BUF = 0x144
                    0x0146                  IC2CON = 0x146
                    0x0146                  _IC2CON = 0x146
                    0x0146                  _IC2CONbits = 0x146
                    0x0158                  IC7BUF = 0x158
                    0x0158                  _IC7BUF = 0x158
                    0x015a                  IC7CON = 0x15a
                    0x015a                  _IC7CON = 0x15a
                    0x015a                  _IC7CONbits = 0x15a
                    0x015c                  IC8BUF = 0x15c
                    0x015c                  _IC8BUF = 0x15c
                    0x015e                  IC8CON = 0x15e
                    0x015e                  _IC8CON = 0x15e
                    0x015e                  _IC8CONbits = 0x15e
                    0x0180                  OC1RS = 0x180
                    0x0180                  _OC1RS = 0x180
                    0x0182                  OC1R = 0x182
                    0x0182                  _OC1R = 0x182
                    0x0184                  OC1CON = 0x184
                    0x0184                  _OC1CON = 0x184
                    0x0184                  _OC1CONbits = 0x184
                    0x0186                  OC2RS = 0x186
                    0x0186                  _OC2RS = 0x186
                    0x0188                  OC2R = 0x188
                    0x0188                  _OC2R = 0x188
                    0x018a                  OC2CON = 0x18a
                    0x018a                  _OC2CON = 0x18a
                    0x018a                  _OC2CONbits = 0x18a
                    0x018c                  OC3RS = 0x18c
                    0x018c                  _OC3RS = 0x18c
                    0x018e                  OC3R = 0x18e
                    0x018e                  _OC3R = 0x18e
                    0x0190                  OC3CON = 0x190
                    0x0190                  _OC3CON = 0x190
                    0x0190                  _OC3CONbits = 0x190
                    0x0192                  OC4RS = 0x192
                    0x0192                  _OC4RS = 0x192
                    0x0194                  OC4R = 0x194
                    0x0194                  _OC4R = 0x194
                    0x0196                  OC4CON = 0x196
                    0x0196                  _OC4CON = 0x196
                    0x0196                  _OC4CONbits = 0x196
                    0x0200                  I2C1RCV = 0x200
                    0x0200                  _I2C1RCV = 0x200
                    0x0200                  I2CRCV = 0x200
                    0x0200                  _I2CRCV = 0x200
                    0x0202                  I2C1TRN = 0x202
                    0x0202                  _I2C1TRN = 0x202
                    0x0202                  I2CTRN = 0x202
                    0x0202                  _I2CTRN = 0x202
                    0x0204                  I2C1BRG = 0x204
                    0x0204                  _I2C1BRG = 0x204
                    0x0206                  I2C1CON = 0x206
                    0x0206                  _I2C1CON = 0x206
                    0x0206                  _I2C1CONbits = 0x206
                    0x0206                  I2CCON = 0x206
                    0x0206                  _I2CCON = 0x206
                    0x0208                  I2C1STAT = 0x208
                    0x0208                  _I2C1STAT = 0x208
                    0x0208                  _I2C1STATbits = 0x208
                    0x0208                  I2CSTAT = 0x208
                    0x0208                  _I2CSTAT = 0x208
                    0x020a                  I2C1ADD = 0x20a
                    0x020a                  _I2C1ADD = 0x20a
                    0x020a                  I2CADD = 0x20a
                    0x020a                  _I2CADD = 0x20a
                    0x020c                  I2C1MSK = 0x20c
                    0x020c                  _I2C1MSK = 0x20c
                    0x0220                  U1MODE = 0x220
                    0x0220                  _U1MODE = 0x220
                    0x0220                  _U1MODEbits = 0x220
                    0x0222                  U1STA = 0x222
                    0x0222                  _U1STA = 0x222
                    0x0222                  _U1STAbits = 0x222
                    0x0224                  U1TXREG = 0x224
                    0x0224                  _U1TXREG = 0x224
                    0x0224                  _U1TXREGbits = 0x224
                    0x0226                  U1RXREG = 0x226
                    0x0226                  _U1RXREG = 0x226
                    0x0226                  _U1RXREGbits = 0x226
                    0x0228                  U1BRG = 0x228
                    0x0228                  _U1BRG = 0x228
                    0x0230                  U2MODE = 0x230
                    0x0230                  _U2MODE = 0x230
                    0x0230                  _U2MODEbits = 0x230
                    0x0232                  U2STA = 0x232
                    0x0232                  _U2STA = 0x232
                    0x0232                  _U2STAbits = 0x232
                    0x0234                  U2TXREG = 0x234
                    0x0234                  _U2TXREG = 0x234
                    0x0234                  _U2TXREGbits = 0x234
                    0x0236                  U2RXREG = 0x236
                    0x0236                  _U2RXREG = 0x236
                    0x0236                  _U2RXREGbits = 0x236
                    0x0238                  U2BRG = 0x238
                    0x0238                  _U2BRG = 0x238
                    0x0240                  SPI1STAT = 0x240
                    0x0240                  _SPI1STAT = 0x240
                    0x0240                  _SPI1STATbits = 0x240
                    0x0242                  SPI1CON1 = 0x242
                    0x0242                  _SPI1CON1 = 0x242
                    0x0242                  _SPI1CON1bits = 0x242
                    0x0244                  SPI1CON2 = 0x244
                    0x0244                  _SPI1CON2 = 0x244
                    0x0244                  _SPI1CON2bits = 0x244
                    0x0248                  SPI1BUF = 0x248
                    0x0248                  _SPI1BUF = 0x248
                    0x0260                  SPI2STAT = 0x260
                    0x0260                  _SPI2STAT = 0x260
                    0x0260                  _SPI2STATbits = 0x260
                    0x0262                  SPI2CON1 = 0x262
                    0x0262                  _SPI2CON1 = 0x262
                    0x0262                  _SPI2CON1bits = 0x262
                    0x0264                  SPI2CON2 = 0x264
                    0x0264                  _SPI2CON2 = 0x264
                    0x0264                  _SPI2CON2bits = 0x264
                    0x0268                  SPI2BUF = 0x268
                    0x0268                  _SPI2BUF = 0x268
                    0x0280                  DCICON1 = 0x280
                    0x0280                  _DCICON1 = 0x280
                    0x0280                  _DCICON1bits = 0x280
                    0x0282                  DCICON2 = 0x282
                    0x0282                  _DCICON2 = 0x282
                    0x0282                  _DCICON2bits = 0x282
                    0x0284                  DCICON3 = 0x284
                    0x0284                  _DCICON3 = 0x284
                    0x0284                  _DCICON3bits = 0x284
                    0x0286                  DCISTAT = 0x286
                    0x0286                  _DCISTAT = 0x286
                    0x0286                  _DCISTATbits = 0x286
                    0x0288                  TSCON = 0x288
                    0x0288                  _TSCON = 0x288
                    0x0288                  _TSCONbits = 0x288
                    0x028c                  RSCON = 0x28c
                    0x028c                  _RSCON = 0x28c
                    0x028c                  _RSCONbits = 0x28c
                    0x0290                  RXBUF0 = 0x290
                    0x0290                  _RXBUF0 = 0x290
                    0x0292                  RXBUF1 = 0x292
                    0x0292                  _RXBUF1 = 0x292
                    0x0294                  RXBUF2 = 0x294
                    0x0294                  _RXBUF2 = 0x294
                    0x0296                  RXBUF3 = 0x296
                    0x0296                  _RXBUF3 = 0x296
                    0x0298                  TXBUF0 = 0x298
                    0x0298                  _TXBUF0 = 0x298
                    0x029a                  TXBUF1 = 0x29a
                    0x029a                  _TXBUF1 = 0x29a
                    0x029c                  TXBUF2 = 0x29c
                    0x029c                  _TXBUF2 = 0x29c
                    0x029e                  TXBUF3 = 0x29e
                    0x029e                  _TXBUF3 = 0x29e
                    0x02c0                  TRISA = 0x2c0
                    0x02c0                  _TRISA = 0x2c0
                    0x02c0                  _TRISAbits = 0x2c0
                    0x02c2                  PORTA = 0x2c2
                    0x02c2                  _PORTA = 0x2c2
                    0x02c2                  _PORTAbits = 0x2c2
                    0x02c4                  LATA = 0x2c4
                    0x02c4                  _LATA = 0x2c4
                    0x02c4                  _LATAbits = 0x2c4
                    0x02c6                  ODCA = 0x2c6
                    0x02c6                  _ODCA = 0x2c6
                    0x02c6                  _ODCAbits = 0x2c6
                    0x02c8                  TRISB = 0x2c8
                    0x02c8                  _TRISB = 0x2c8
                    0x02c8                  _TRISBbits = 0x2c8
                    0x02ca                  PORTB = 0x2ca
                    0x02ca                  _PORTB = 0x2ca
                    0x02ca                  _PORTBbits = 0x2ca
                    0x02cc                  LATB = 0x2cc
                    0x02cc                  _LATB = 0x2cc
                    0x02cc                  _LATBbits = 0x2cc
                    0x02ce                  ODCB = 0x2ce
                    0x02ce                  _ODCB = 0x2ce
                    0x02ce                  _ODCBbits = 0x2ce
                    0x02fc                  PADCFG1 = 0x2fc
                    0x02fc                  _PADCFG1 = 0x2fc
                    0x02fc                  _PADCFG1bits = 0x2fc
                    0x0300                  ADC1BUF0 = 0x300
                    0x0300                  _ADC1BUF0 = 0x300
                    0x0300                  ADCBUF0 = 0x300
                    0x0300                  _ADCBUF0 = 0x300
                    0x0320                  AD1CON1 = 0x320
                    0x0320                  _AD1CON1 = 0x320
                    0x0320                  _AD1CON1bits = 0x320
                    0x0322                  AD1CON2 = 0x322
                    0x0322                  _AD1CON2 = 0x322
                    0x0322                  _AD1CON2bits = 0x322
                    0x0324                  AD1CON3 = 0x324
                    0x0324                  _AD1CON3 = 0x324
                    0x0324                  _AD1CON3bits = 0x324
                    0x0326                  AD1CHS123 = 0x326
                    0x0326                  _AD1CHS123 = 0x326
                    0x0326                  _AD1CHS123bits = 0x326
                    0x0328                  AD1CHS0 = 0x328
                    0x0328                  _AD1CHS0 = 0x328
                    0x0328                  _AD1CHS0bits = 0x328
                    0x032c                  AD1PCFGL = 0x32c
                    0x032c                  _AD1PCFGL = 0x32c
                    0x032c                  _AD1PCFGLbits = 0x32c
                    0x032c                  ADPCFG = 0x32c
                    0x032c                  _ADPCFG = 0x32c
                    0x0330                  AD1CSSL = 0x330
                    0x0330                  _AD1CSSL = 0x330
                    0x0330                  _AD1CSSLbits = 0x330
                    0x0332                  AD1CON4 = 0x332
                    0x0332                  _AD1CON4 = 0x332
                    0x0332                  _AD1CON4bits = 0x332
                    0x0380                  DMA0CON = 0x380
                    0x0380                  _DMA0CON = 0x380
                    0x0380                  _DMA0CONbits = 0x380
                    0x0382                  DMA0REQ = 0x382
                    0x0382                  _DMA0REQ = 0x382
                    0x0382                  _DMA0REQbits = 0x382
                    0x0384                  DMA0STA = 0x384
                    0x0384                  _DMA0STA = 0x384
                    0x0386                  DMA0STB = 0x386
                    0x0386                  _DMA0STB = 0x386
                    0x0388                  DMA0PAD = 0x388
                    0x0388                  _DMA0PAD = 0x388
                    0x038a                  DMA0CNT = 0x38a
                    0x038a                  _DMA0CNT = 0x38a
                    0x038c                  DMA1CON = 0x38c
                    0x038c                  _DMA1CON = 0x38c
                    0x038c                  _DMA1CONbits = 0x38c
                    0x038e                  DMA1REQ = 0x38e
                    0x038e                  _DMA1REQ = 0x38e
                    0x038e                  _DMA1REQbits = 0x38e
                    0x0390                  DMA1STA = 0x390
                    0x0390                  _DMA1STA = 0x390
                    0x0392                  DMA1STB = 0x392
                    0x0392                  _DMA1STB = 0x392
                    0x0394                  DMA1PAD = 0x394
                    0x0394                  _DMA1PAD = 0x394
                    0x0396                  DMA1CNT = 0x396
                    0x0396                  _DMA1CNT = 0x396
                    0x0398                  DMA2CON = 0x398
                    0x0398                  _DMA2CON = 0x398
                    0x0398                  _DMA2CONbits = 0x398
                    0x039a                  DMA2REQ = 0x39a
                    0x039a                  _DMA2REQ = 0x39a
                    0x039a                  _DMA2REQbits = 0x39a
                    0x039c                  DMA2STA = 0x39c
                    0x039c                  _DMA2STA = 0x39c
                    0x039e                  DMA2STB = 0x39e
                    0x039e                  _DMA2STB = 0x39e
                    0x03a0                  DMA2PAD = 0x3a0
                    0x03a0                  _DMA2PAD = 0x3a0
                    0x03a2                  DMA2CNT = 0x3a2
                    0x03a2                  _DMA2CNT = 0x3a2
                    0x03a4                  DMA3CON = 0x3a4
                    0x03a4                  _DMA3CON = 0x3a4
                    0x03a4                  _DMA3CONbits = 0x3a4
                    0x03a6                  DMA3REQ = 0x3a6
                    0x03a6                  _DMA3REQ = 0x3a6
                    0x03a6                  _DMA3REQbits = 0x3a6
                    0x03a8                  DMA3STA = 0x3a8
                    0x03a8                  _DMA3STA = 0x3a8
                    0x03aa                  DMA3STB = 0x3aa
                    0x03aa                  _DMA3STB = 0x3aa
                    0x03ac                  DMA3PAD = 0x3ac
                    0x03ac                  _DMA3PAD = 0x3ac
                    0x03ae                  DMA3CNT = 0x3ae
                    0x03ae                  _DMA3CNT = 0x3ae
                    0x03b0                  DMA4CON = 0x3b0
                    0x03b0                  _DMA4CON = 0x3b0
                    0x03b0                  _DMA4CONbits = 0x3b0
                    0x03b2                  DMA4REQ = 0x3b2
                    0x03b2                  _DMA4REQ = 0x3b2
                    0x03b2                  _DMA4REQbits = 0x3b2
                    0x03b4                  DMA4STA = 0x3b4
                    0x03b4                  _DMA4STA = 0x3b4
                    0x03b6                  DMA4STB = 0x3b6
                    0x03b6                  _DMA4STB = 0x3b6
                    0x03b8                  DMA4PAD = 0x3b8
                    0x03b8                  _DMA4PAD = 0x3b8
                    0x03ba                  DMA4CNT = 0x3ba
                    0x03ba                  _DMA4CNT = 0x3ba
                    0x03bc                  DMA5CON = 0x3bc
                    0x03bc                  _DMA5CON = 0x3bc
                    0x03bc                  _DMA5CONbits = 0x3bc
                    0x03be                  DMA5REQ = 0x3be
                    0x03be                  _DMA5REQ = 0x3be
                    0x03be                  _DMA5REQbits = 0x3be
                    0x03c0                  DMA5STA = 0x3c0
                    0x03c0                  _DMA5STA = 0x3c0
                    0x03c2                  DMA5STB = 0x3c2
                    0x03c2                  _DMA5STB = 0x3c2
                    0x03c4                  DMA5PAD = 0x3c4
                    0x03c4                  _DMA5PAD = 0x3c4
                    0x03c6                  DMA5CNT = 0x3c6
                    0x03c6                  _DMA5CNT = 0x3c6
                    0x03c8                  DMA6CON = 0x3c8
                    0x03c8                  _DMA6CON = 0x3c8
                    0x03c8                  _DMA6CONbits = 0x3c8
                    0x03ca                  DMA6REQ = 0x3ca
                    0x03ca                  _DMA6REQ = 0x3ca
                    0x03ca                  _DMA6REQbits = 0x3ca
                    0x03cc                  DMA6STA = 0x3cc
                    0x03cc                  _DMA6STA = 0x3cc
                    0x03ce                  DMA6STB = 0x3ce
                    0x03ce                  _DMA6STB = 0x3ce
                    0x03d0                  DMA6PAD = 0x3d0
                    0x03d0                  _DMA6PAD = 0x3d0
                    0x03d2                  DMA6CNT = 0x3d2
                    0x03d2                  _DMA6CNT = 0x3d2
                    0x03d4                  DMA7CON = 0x3d4
                    0x03d4                  _DMA7CON = 0x3d4
                    0x03d4                  _DMA7CONbits = 0x3d4
                    0x03d6                  DMA7REQ = 0x3d6
                    0x03d6                  _DMA7REQ = 0x3d6
                    0x03d6                  _DMA7REQbits = 0x3d6
                    0x03d8                  DMA7STA = 0x3d8
                    0x03d8                  _DMA7STA = 0x3d8
                    0x03da                  DMA7STB = 0x3da
                    0x03da                  _DMA7STB = 0x3da
                    0x03dc                  DMA7PAD = 0x3dc
                    0x03dc                  _DMA7PAD = 0x3dc
                    0x03de                  DMA7CNT = 0x3de
                    0x03de                  _DMA7CNT = 0x3de
                    0x03e0                  DMACS0 = 0x3e0
                    0x03e0                  _DMACS0 = 0x3e0
                    0x03e0                  _DMACS0bits = 0x3e0
                    0x03e2                  DMACS1 = 0x3e2
                    0x03e2                  _DMACS1 = 0x3e2
                    0x03e2                  _DMACS1bits = 0x3e2
                    0x03e4                  DSADR = 0x3e4
                    0x03e4                  _DSADR = 0x3e4
                    0x03f0                  DAC1CON = 0x3f0
                    0x03f0                  _DAC1CON = 0x3f0
                    0x03f0                  _DAC1CONbits = 0x3f0
                    0x03f2                  DAC1STAT = 0x3f2
                    0x03f2                  _DAC1STAT = 0x3f2
                    0x03f2                  _DAC1STATbits = 0x3f2
                    0x03f4                  DAC1DFLT = 0x3f4
                    0x03f4                  _DAC1DFLT = 0x3f4
                    0x03f6                  DAC1RDAT = 0x3f6
                    0x03f6                  _DAC1RDAT = 0x3f6
                    0x03f8                  DAC1LDAT = 0x3f8
                    0x03f8                  _DAC1LDAT = 0x3f8
                    0x0400                  C1CTRL1 = 0x400
                    0x0400                  _C1CTRL1 = 0x400
                    0x0400                  _C1CTRL1bits = 0x400
                    0x0402                  C1CTRL2 = 0x402
                    0x0402                  _C1CTRL2 = 0x402
                    0x0402                  _C1CTRL2bits = 0x402
                    0x0404                  C1VEC = 0x404
                    0x0404                  _C1VEC = 0x404
                    0x0404                  _C1VECbits = 0x404
                    0x0406                  C1FCTRL = 0x406
                    0x0406                  _C1FCTRL = 0x406
                    0x0406                  _C1FCTRLbits = 0x406
                    0x0408                  C1FIFO = 0x408
                    0x0408                  _C1FIFO = 0x408
                    0x0408                  _C1FIFObits = 0x408
                    0x040a                  C1INTF = 0x40a
                    0x040a                  _C1INTF = 0x40a
                    0x040a                  _C1INTFbits = 0x40a
                    0x040c                  C1INTE = 0x40c
                    0x040c                  _C1INTE = 0x40c
                    0x040c                  _C1INTEbits = 0x40c
                    0x040e                  C1EC = 0x40e
                    0x040e                  _C1EC = 0x40e
                    0x040e                  _C1ECbits = 0x40e
                    0x040e                  C1RERRCNT = 0x40e
                    0x040e                  _C1RERRCNT = 0x40e
                    0x040f                  C1TERRCNT = 0x40f
                    0x040f                  _C1TERRCNT = 0x40f
                    0x0410                  C1CFG1 = 0x410
                    0x0410                  _C1CFG1 = 0x410
                    0x0410                  _C1CFG1bits = 0x410
                    0x0412                  C1CFG2 = 0x412
                    0x0412                  _C1CFG2 = 0x412
                    0x0412                  _C1CFG2bits = 0x412
                    0x0414                  C1FEN1 = 0x414
                    0x0414                  _C1FEN1 = 0x414
                    0x0414                  _C1FEN1bits = 0x414
                    0x0418                  C1FMSKSEL1 = 0x418
                    0x0418                  _C1FMSKSEL1 = 0x418
                    0x0418                  _C1FMSKSEL1bits = 0x418
                    0x041a                  C1FMSKSEL2 = 0x41a
                    0x041a                  _C1FMSKSEL2 = 0x41a
                    0x041a                  _C1FMSKSEL2bits = 0x41a
                    0x0420                  C1BUFPNT1 = 0x420
                    0x0420                  _C1BUFPNT1 = 0x420
                    0x0420                  _C1BUFPNT1bits = 0x420
                    0x0420                  C1RXFUL1 = 0x420
                    0x0420                  _C1RXFUL1 = 0x420
                    0x0420                  _C1RXFUL1bits = 0x420
                    0x0422                  C1BUFPNT2 = 0x422
                    0x0422                  _C1BUFPNT2 = 0x422
                    0x0422                  _C1BUFPNT2bits = 0x422
                    0x0422                  C1RXFUL2 = 0x422
                    0x0422                  _C1RXFUL2 = 0x422
                    0x0422                  _C1RXFUL2bits = 0x422
                    0x0424                  C1BUFPNT3 = 0x424
                    0x0424                  _C1BUFPNT3 = 0x424
                    0x0424                  _C1BUFPNT3bits = 0x424
                    0x0426                  C1BUFPNT4 = 0x426
                    0x0426                  _C1BUFPNT4 = 0x426
                    0x0426                  _C1BUFPNT4bits = 0x426
                    0x0428                  C1RXOVF1 = 0x428
                    0x0428                  _C1RXOVF1 = 0x428
                    0x0428                  _C1RXOVF1bits = 0x428
                    0x042a                  C1RXOVF2 = 0x42a
                    0x042a                  _C1RXOVF2 = 0x42a
                    0x042a                  _C1RXOVF2bits = 0x42a
                    0x0430                  C1RXM0SID = 0x430
                    0x0430                  _C1RXM0SID = 0x430
                    0x0430                  _C1RXM0SIDbits = 0x430
                    0x0430                  C1TR01CON = 0x430
                    0x0430                  _C1TR01CON = 0x430
                    0x0430                  _C1TR01CONbits = 0x430
                    0x0432                  C1RXM0EID = 0x432
                    0x0432                  _C1RXM0EID = 0x432
                    0x0432                  _C1RXM0EIDbits = 0x432
                    0x0432                  C1TR23CON = 0x432
                    0x0432                  _C1TR23CON = 0x432
                    0x0432                  _C1TR23CONbits = 0x432
                    0x0434                  C1RXM1SID = 0x434
                    0x0434                  _C1RXM1SID = 0x434
                    0x0434                  _C1RXM1SIDbits = 0x434
                    0x0434                  C1TR45CON = 0x434
                    0x0434                  _C1TR45CON = 0x434
                    0x0434                  _C1TR45CONbits = 0x434
                    0x0436                  C1RXM1EID = 0x436
                    0x0436                  _C1RXM1EID = 0x436
                    0x0436                  _C1RXM1EIDbits = 0x436
                    0x0436                  C1TR67CON = 0x436
                    0x0436                  _C1TR67CON = 0x436
                    0x0436                  _C1TR67CONbits = 0x436
                    0x0438                  C1RXM2SID = 0x438
                    0x0438                  _C1RXM2SID = 0x438
                    0x0438                  _C1RXM2SIDbits = 0x438
                    0x043a                  C1RXM2EID = 0x43a
                    0x043a                  _C1RXM2EID = 0x43a
                    0x043a                  _C1RXM2EIDbits = 0x43a
                    0x0440                  C1RXD = 0x440
                    0x0440                  _C1RXD = 0x440
                    0x0440                  C1RXF0SID = 0x440
                    0x0440                  _C1RXF0SID = 0x440
                    0x0440                  _C1RXF0SIDbits = 0x440
                    0x0442                  C1RXF0EID = 0x442
                    0x0442                  _C1RXF0EID = 0x442
                    0x0442                  _C1RXF0EIDbits = 0x442
                    0x0442                  C1TXD = 0x442
                    0x0442                  _C1TXD = 0x442
                    0x0444                  C1RXF1SID = 0x444
                    0x0444                  _C1RXF1SID = 0x444
                    0x0444                  _C1RXF1SIDbits = 0x444
                    0x0446                  C1RXF1EID = 0x446
                    0x0446                  _C1RXF1EID = 0x446
                    0x0446                  _C1RXF1EIDbits = 0x446
                    0x0448                  C1RXF2SID = 0x448
                    0x0448                  _C1RXF2SID = 0x448
                    0x0448                  _C1RXF2SIDbits = 0x448
                    0x044a                  C1RXF2EID = 0x44a
                    0x044a                  _C1RXF2EID = 0x44a
                    0x044a                  _C1RXF2EIDbits = 0x44a
                    0x044c                  C1RXF3SID = 0x44c
                    0x044c                  _C1RXF3SID = 0x44c
                    0x044c                  _C1RXF3SIDbits = 0x44c
                    0x044e                  C1RXF3EID = 0x44e
                    0x044e                  _C1RXF3EID = 0x44e
                    0x044e                  _C1RXF3EIDbits = 0x44e
                    0x0450                  C1RXF4SID = 0x450
                    0x0450                  _C1RXF4SID = 0x450
                    0x0450                  _C1RXF4SIDbits = 0x450
                    0x0452                  C1RXF4EID = 0x452
                    0x0452                  _C1RXF4EID = 0x452
                    0x0452                  _C1RXF4EIDbits = 0x452
                    0x0454                  C1RXF5SID = 0x454
                    0x0454                  _C1RXF5SID = 0x454
                    0x0454                  _C1RXF5SIDbits = 0x454
                    0x0456                  C1RXF5EID = 0x456
                    0x0456                  _C1RXF5EID = 0x456
                    0x0456                  _C1RXF5EIDbits = 0x456
                    0x0458                  C1RXF6SID = 0x458
                    0x0458                  _C1RXF6SID = 0x458
                    0x0458                  _C1RXF6SIDbits = 0x458
                    0x045a                  C1RXF6EID = 0x45a
                    0x045a                  _C1RXF6EID = 0x45a
                    0x045a                  _C1RXF6EIDbits = 0x45a
                    0x045c                  C1RXF7SID = 0x45c
                    0x045c                  _C1RXF7SID = 0x45c
                    0x045c                  _C1RXF7SIDbits = 0x45c
                    0x045e                  C1RXF7EID = 0x45e
                    0x045e                  _C1RXF7EID = 0x45e
                    0x045e                  _C1RXF7EIDbits = 0x45e
                    0x0460                  C1RXF8SID = 0x460
                    0x0460                  _C1RXF8SID = 0x460
                    0x0460                  _C1RXF8SIDbits = 0x460
                    0x0462                  C1RXF8EID = 0x462
                    0x0462                  _C1RXF8EID = 0x462
                    0x0462                  _C1RXF8EIDbits = 0x462
                    0x0464                  C1RXF9SID = 0x464
                    0x0464                  _C1RXF9SID = 0x464
                    0x0464                  _C1RXF9SIDbits = 0x464
                    0x0466                  C1RXF9EID = 0x466
                    0x0466                  _C1RXF9EID = 0x466
                    0x0466                  _C1RXF9EIDbits = 0x466
                    0x0468                  C1RXF10SID = 0x468
                    0x0468                  _C1RXF10SID = 0x468
                    0x0468                  _C1RXF10SIDbits = 0x468
                    0x046a                  C1RXF10EID = 0x46a
                    0x046a                  _C1RXF10EID = 0x46a
                    0x046a                  _C1RXF10EIDbits = 0x46a
                    0x046c                  C1RXF11SID = 0x46c
                    0x046c                  _C1RXF11SID = 0x46c
                    0x046c                  _C1RXF11SIDbits = 0x46c
                    0x046e                  C1RXF11EID = 0x46e
                    0x046e                  _C1RXF11EID = 0x46e
                    0x046e                  _C1RXF11EIDbits = 0x46e
                    0x0470                  C1RXF12SID = 0x470
                    0x0470                  _C1RXF12SID = 0x470
                    0x0470                  _C1RXF12SIDbits = 0x470
                    0x0472                  C1RXF12EID = 0x472
                    0x0472                  _C1RXF12EID = 0x472
                    0x0472                  _C1RXF12EIDbits = 0x472
                    0x0474                  C1RXF13SID = 0x474
                    0x0474                  _C1RXF13SID = 0x474
                    0x0474                  _C1RXF13SIDbits = 0x474
                    0x0476                  C1RXF13EID = 0x476
                    0x0476                  _C1RXF13EID = 0x476
                    0x0476                  _C1RXF13EIDbits = 0x476
                    0x0478                  C1RXF14SID = 0x478
                    0x0478                  _C1RXF14SID = 0x478
                    0x0478                  _C1RXF14SIDbits = 0x478
                    0x047a                  C1RXF14EID = 0x47a
                    0x047a                  _C1RXF14EID = 0x47a
                    0x047a                  _C1RXF14EIDbits = 0x47a
                    0x047c                  C1RXF15SID = 0x47c
                    0x047c                  _C1RXF15SID = 0x47c
                    0x047c                  _C1RXF15SIDbits = 0x47c
                    0x047e                  C1RXF15EID = 0x47e
                    0x047e                  _C1RXF15EID = 0x47e
                    0x047e                  _C1RXF15EIDbits = 0x47e
                    0x0600                  PMCON = 0x600
                    0x0600                  _PMCON = 0x600
                    0x0600                  _PMCONbits = 0x600
                    0x0602                  PMMODE = 0x602
                    0x0602                  _PMMODE = 0x602
                    0x0602                  _PMMODEbits = 0x602
                    0x0604                  PMADDR = 0x604
                    0x0604                  _PMADDR = 0x604
                    0x0604                  _PMADDRbits = 0x604
                    0x0604                  PMDOUT1 = 0x604
                    0x0604                  _PMDOUT1 = 0x604
                    0x0606                  PMDOUT2 = 0x606
                    0x0606                  _PMDOUT2 = 0x606
                    0x0608                  PMDIN1 = 0x608
                    0x0608                  _PMDIN1 = 0x608
                    0x060a                  PMDIN2 = 0x60a
                    0x060a                  _PMDIN2 = 0x60a
                    0x060c                  PMAEN = 0x60c
                    0x060c                  _PMAEN = 0x60c
                    0x060c                  _PMAENbits = 0x60c
                    0x060e                  PMSTAT = 0x60e
                    0x060e                  _PMSTAT = 0x60e
                    0x060e                  _PMSTATbits = 0x60e
                    0x0620                  ALRMVAL = 0x620
                    0x0620                  _ALRMVAL = 0x620
                    0x0622                  ALCFGRPT = 0x622
                    0x0622                  _ALCFGRPT = 0x622
                    0x0622                  _ALCFGRPTbits = 0x622
                    0x0624                  RTCVAL = 0x624
                    0x0624                  _RTCVAL = 0x624
                    0x0626                  RCFGCAL = 0x626
                    0x0626                  _RCFGCAL = 0x626
                    0x0626                  _RCFGCALbits = 0x626
                    0x0630                  CMCON = 0x630
                    0x0630                  _CMCON = 0x630
                    0x0630                  _CMCONbits = 0x630
                    0x0632                  CVRCON = 0x632
                    0x0632                  _CVRCON = 0x632
                    0x0632                  _CVRCONbits = 0x632
                    0x0640                  CRCCON = 0x640
                    0x0640                  _CRCCON = 0x640
                    0x0640                  _CRCCONbits = 0x640
                    0x0642                  CRCXOR = 0x642
                    0x0642                  _CRCXOR = 0x642
                    0x0644                  CRCDAT = 0x644
                    0x0644                  _CRCDAT = 0x644
                    0x0646                  CRCWDAT = 0x646
                    0x0646                  _CRCWDAT = 0x646
                    0x0680                  RPINR0 = 0x680
                    0x0680                  _RPINR0 = 0x680
                    0x0680                  _RPINR0bits = 0x680
                    0x0682                  RPINR1 = 0x682
                    0x0682                  _RPINR1 = 0x682
                    0x0682                  _RPINR1bits = 0x682
                    0x0686                  RPINR3 = 0x686
                    0x0686                  _RPINR3 = 0x686
                    0x0686                  _RPINR3bits = 0x686
                    0x0688                  RPINR4 = 0x688
                    0x0688                  _RPINR4 = 0x688
                    0x0688                  _RPINR4bits = 0x688
                    0x068e                  RPINR7 = 0x68e
                    0x068e                  _RPINR7 = 0x68e
                    0x068e                  _RPINR7bits = 0x68e
                    0x0694                  RPINR10 = 0x694
                    0x0694                  _RPINR10 = 0x694
                    0x0694                  _RPINR10bits = 0x694
                    0x0696                  RPINR11 = 0x696
                    0x0696                  _RPINR11 = 0x696
                    0x0696                  _RPINR11bits = 0x696
                    0x06a4                  RPINR18 = 0x6a4
                    0x06a4                  _RPINR18 = 0x6a4
                    0x06a4                  _RPINR18bits = 0x6a4
                    0x06a6                  RPINR19 = 0x6a6
                    0x06a6                  _RPINR19 = 0x6a6
                    0x06a6                  _RPINR19bits = 0x6a6
                    0x06a8                  RPINR20 = 0x6a8
                    0x06a8                  _RPINR20 = 0x6a8
                    0x06a8                  _RPINR20bits = 0x6a8
                    0x06aa                  RPINR21 = 0x6aa
                    0x06aa                  _RPINR21 = 0x6aa
                    0x06aa                  _RPINR21bits = 0x6aa
                    0x06ac                  RPINR22 = 0x6ac
                    0x06ac                  _RPINR22 = 0x6ac
                    0x06ac                  _RPINR22bits = 0x6ac
                    0x06ae                  RPINR23 = 0x6ae
                    0x06ae                  _RPINR23 = 0x6ae
                    0x06ae                  _RPINR23bits = 0x6ae
                    0x06b0                  RPINR24 = 0x6b0
                    0x06b0                  _RPINR24 = 0x6b0
                    0x06b0                  _RPINR24bits = 0x6b0
                    0x06b2                  RPINR25 = 0x6b2
                    0x06b2                  _RPINR25 = 0x6b2
                    0x06b2                  _RPINR25bits = 0x6b2
                    0x06b4                  RPINR26 = 0x6b4
                    0x06b4                  _RPINR26 = 0x6b4
                    0x06b4                  _RPINR26bits = 0x6b4
                    0x06c0                  RPOR0 = 0x6c0
                    0x06c0                  _RPOR0 = 0x6c0
                    0x06c0                  _RPOR0bits = 0x6c0
                    0x06c2                  RPOR1 = 0x6c2
                    0x06c2                  _RPOR1 = 0x6c2
                    0x06c2                  _RPOR1bits = 0x6c2
                    0x06c4                  RPOR2 = 0x6c4
                    0x06c4                  _RPOR2 = 0x6c4
                    0x06c4                  _RPOR2bits = 0x6c4
                    0x06c6                  RPOR3 = 0x6c6
                    0x06c6                  _RPOR3 = 0x6c6
                    0x06c6                  _RPOR3bits = 0x6c6
                    0x06c8                  RPOR4 = 0x6c8
                    0x06c8                  _RPOR4 = 0x6c8
                    0x06c8                  _RPOR4bits = 0x6c8
                    0x06ca                  RPOR5 = 0x6ca
                    0x06ca                  _RPOR5 = 0x6ca
                    0x06ca                  _RPOR5bits = 0x6ca
                    0x06cc                  RPOR6 = 0x6cc
                    0x06cc                  _RPOR6 = 0x6cc
                    0x06cc                  _RPOR6bits = 0x6cc
                    0x06ce                  RPOR7 = 0x6ce
                    0x06ce                  _RPOR7 = 0x6ce
                    0x06ce                  _RPOR7bits = 0x6ce
                    0x06d0                  RPOR8 = 0x6d0
                    0x06d0                  _RPOR8 = 0x6d0
                    0x06d0                  _RPOR8bits = 0x6d0
                    0x06d2                  RPOR9 = 0x6d2
                    0x06d2                  _RPOR9 = 0x6d2
                    0x06d2                  _RPOR9bits = 0x6d2
                    0x06d4                  RPOR10 = 0x6d4
                    0x06d4                  _RPOR10 = 0x6d4
                    0x06d4                  _RPOR10bits = 0x6d4
                    0x06d6                  RPOR11 = 0x6d6
                    0x06d6                  _RPOR11 = 0x6d6
                    0x06d6                  _RPOR11bits = 0x6d6
                    0x06d8                  RPOR12 = 0x6d8
                    0x06d8                  _RPOR12 = 0x6d8
                    0x06d8                  _RPOR12bits = 0x6d8
                    0x0740                  RCON = 0x740
                    0x0740                  _RCON = 0x740
                    0x0740                  _RCONbits = 0x740
                    0x0742                  OSCCON = 0x742
                    0x0742                  _OSCCON = 0x742
                    0x0742                  _OSCCONbits = 0x742
                    0x0742                  OSCCONL = 0x742
                    0x0742                  _OSCCONL = 0x742
                    0x0743                  OSCCONH = 0x743
                    0x0743                  _OSCCONH = 0x743
                    0x0744                  CLKDIV = 0x744
                    0x0744                  _CLKDIV = 0x744
                    0x0744                  _CLKDIVbits = 0x744
                    0x0746                  PLLFBD = 0x746
                    0x0746                  _PLLFBD = 0x746
                    0x0746                  _PLLFBDbits = 0x746
                    0x0748                  OSCTUN = 0x748
                    0x0748                  _OSCTUN = 0x748
                    0x0748                  _OSCTUNbits = 0x748
                    0x074a                  ACLKCON = 0x74a
                    0x074a                  _ACLKCON = 0x74a
                    0x074a                  _ACLKCONbits = 0x74a
                    0x0750                  BSRAM = 0x750
                    0x0750                  _BSRAM = 0x750
                    0x0750                  _BSRAMbits = 0x750
                    0x0752                  SSRAM = 0x752
                    0x0752                  _SSRAM = 0x752
                    0x0752                  _SSRAMbits = 0x752
                    0x0760                  NVMCON = 0x760
                    0x0760                  _NVMCON = 0x760
                    0x0760                  _NVMCONbits = 0x760
                    0x0766                  NVMKEY = 0x766
                    0x0766                  _NVMKEY = 0x766
                    0x0770                  PMD1 = 0x770
                    0x0770                  _PMD1 = 0x770
                    0x0770                  _PMD1bits = 0x770
                    0x0772                  PMD2 = 0x772
                    0x0772                  _PMD2 = 0x772
                    0x0772                  _PMD2bits = 0x772
                    0x0774                  PMD3 = 0x774
                    0x0774                  _PMD3 = 0x774
                    0x0774                  _PMD3bits = 0x774
                    0x0140                  IC1 = 0x140
                    0x0140                  _IC1 = 0x140
                    0x0144                  IC2 = 0x144
                    0x0144                  _IC2 = 0x144
                    0x0158                  IC7 = 0x158
                    0x0158                  _IC7 = 0x158
                    0x015c                  IC8 = 0x15c
                    0x015c                  _IC8 = 0x15c
                    0x0180                  OC1 = 0x180
                    0x0180                  _OC1 = 0x180
                    0x0186                  OC2 = 0x186
                    0x0186                  _OC2 = 0x186
                    0x018c                  OC3 = 0x18c
                    0x018c                  _OC3 = 0x18c
                    0x0192                  OC4 = 0x192
                    0x0192                  _OC4 = 0x192
                    0x0240                  SPI1 = 0x240
                    0x0240                  _SPI1 = 0x240
                    0x0260                  SPI2 = 0x260
                    0x0260                  _SPI2 = 0x260
                    0x0220                  UART1 = 0x220
                    0x0220                  _UART1 = 0x220
                    0x0230                  UART2 = 0x230
                    0x0230                  _UART2 = 0x230
                    0x0001                  __MPLAB_BUILD = 0x1
START GROUP
LOAD c:/program files (x86)/microchip/mplab c30/bin/bin/../../lib\libpic30-coff.a
LOAD c:/program files (x86)/microchip/mplab c30/bin/bin/../../lib\libm-coff.a
LOAD c:/program files (x86)/microchip/mplab c30/bin/bin/../../lib\libc-coff.a
END GROUP
OUTPUT(voter.cof coff-pic30)
LOAD FGS
LOAD data_init

__c30_signature
                  0x000000        0x246
 __c30_signature
                  0x000000          0x6 ARP.o
 __c30_signature
                  0x000006          0x6 Delay.o
 __c30_signature
                  0x00000c          0x6 DHCP.o
 __c30_signature
                  0x000012          0x6 DNS.o
 __c30_signature
                  0x000018          0x6 ENC28J60.o
 __c30_signature
                  0x00001e          0x6 Helpers.o
 __c30_signature
                  0x000024          0x6 IP.o
 __c30_signature
                  0x00002a          0x6 Random.o
 __c30_signature
                  0x000030          0x6 SPIEEPROM.o
 __c30_signature
                  0x000036          0x6 StackTsk.o
 __c30_signature
                  0x00003c          0x6 Tick.o
 __c30_signature
                  0x000042          0x6 UART.o
 __c30_signature
                  0x000048          0x6 UDP.o
 __c30_signature
                  0x00004e          0x6 squelch.o
 __c30_signature
                  0x000054          0x6 Telnet.o
 __c30_signature
                  0x00005a          0x6 TCP.o
 __c30_signature
                  0x000060          0x6 DynDNS.o
 __c30_signature
                  0x000066          0x6 Voter.o
 __c30_signature
                  0x00006c          0x6 doubleify.o
 __c30_signature
                  0x000072          0x6 ICMP.o
 __c30_signature
                  0x000078          0x6 c:/program files (x86)/microchip/mplab c30/bin/bin/../../lib\libpic30-coff.a(crt0_standard.o)
 __c30_signature
                  0x00007e          0x6 c:/program files (x86)/microchip/mplab c30/bin/bin/../../lib\libpic30-coff.a(data_init_standard.o)
 __c30_signature
                  0x000084          0x6 c:/program files (x86)/microchip/mplab c30/bin/bin/../../lib\libm-coff.a(divmoddi3.o)
 __c30_signature
                  0x00008a          0x6 c:/program files (x86)/microchip/mplab c30/bin/bin/../../lib\libm-coff.a(feqltle.o)
 __c30_signature
                  0x000090          0x6 c:/program files (x86)/microchip/mplab c30/bin/bin/../../lib\libm-coff.a(divsf3.o)
 __c30_signature
                  0x000096          0x6 c:/program files (x86)/microchip/mplab c30/bin/bin/../../lib\libm-coff.a(floatsisf.o)
 __c30_signature
                  0x00009c          0x6 c:/program files (x86)/microchip/mplab c30/bin/bin/../../lib\libm-coff.a(addsf3.o)
 __c30_signature
                  0x0000a2          0x6 c:/program files (x86)/microchip/mplab c30/bin/bin/../../lib\libm-coff.a(mulsf3.o)
 __c30_signature
                  0x0000a8          0x6 c:/program files (x86)/microchip/mplab c30/bin/bin/../../lib\libm-coff.a(sinf.o)
 __c30_signature
                  0x0000ae          0x6 c:/program files (x86)/microchip/mplab c30/bin/bin/../../lib\libm-coff.a(fixsfsi.o)
 __c30_signature
                  0x0000b4          0x6 c:/program files (x86)/microchip/mplab c30/bin/bin/../../lib\libm-coff.a(cosf.o)
 __c30_signature
                  0x0000ba          0x6 c:/program files (x86)/microchip/mplab c30/bin/bin/../../lib\libm-coff.a(udivsi3.o)
 __c30_signature
                  0x0000c0          0x6 c:/program files (x86)/microchip/mplab c30/bin/bin/../../lib\libm-coff.a(divsi3.o)
 __c30_signature
                  0x0000c6          0x6 c:/program files (x86)/microchip/mplab c30/bin/bin/../../lib\libm-coff.a(errno.o)
 __c30_signature
                  0x0000cc          0x6 c:/program files (x86)/microchip/mplab c30/bin/bin/../../lib\libm-coff.a(fgtge.o)
 __c30_signature
                  0x0000d2          0x6 c:/program files (x86)/microchip/mplab c30/bin/bin/../../lib\libm-coff.a(umodsi3.o)
 __c30_signature
                  0x0000d8          0x6 c:/program files (x86)/microchip/mplab c30/bin/bin/../../lib\libm-coff.a(truncdfsf.o)
 __c30_signature
                  0x0000de          0x6 c:/program files (x86)/microchip/mplab c30/bin/bin/../../lib\libm-coff.a(fcompare.o)
 __c30_signature
                  0x0000e4          0x6 c:/program files (x86)/microchip/mplab c30/bin/bin/../../lib\libm-coff.a(funpack2.o)
 __c30_signature
                  0x0000ea          0x6 c:/program files (x86)/microchip/mplab c30/bin/bin/../../lib\libm-coff.a(futil.o)
 __c30_signature
                  0x0000f0          0x6 c:/program files (x86)/microchip/mplab c30/bin/bin/../../lib\libm-coff.a(fpack.o)
 __c30_signature
                  0x0000f6          0x6 c:/program files (x86)/microchip/mplab c30/bin/bin/../../lib\libm-coff.a(sincosf.o)
 __c30_signature
                  0x0000fc          0x6 c:/program files (x86)/microchip/mplab c30/bin/bin/../../lib\libm-coff.a(funpack.o)
 __c30_signature
                  0x000102          0x6 c:/program files (x86)/microchip/mplab c30/bin/bin/../../lib\libm-coff.a(dunpack.o)
 __c30_signature
                  0x000108          0x6 c:/program files (x86)/microchip/mplab c30/bin/bin/../../lib\libm-coff.a(dunpack2.o)
 __c30_signature
                  0x00010e          0x6 c:/program files (x86)/microchip/mplab c30/bin/bin/../../lib\libm-coff.a(fmodf.o)
 __c30_signature
                  0x000114          0x6 c:/program files (x86)/microchip/mplab c30/bin/bin/../../lib\libm-coff.a(dpropagateNaN.o)
 __c30_signature
                  0x00011a          0x6 c:/program files (x86)/microchip/mplab c30/bin/bin/../../lib\libm-coff.a(fmodrem.o)
 __c30_signature
                  0x000120          0x6 c:/program files (x86)/microchip/mplab c30/bin/bin/../../lib\libc-coff.a(memset.XXo)
 __c30_signature
                  0x000126          0x6 c:/program files (x86)/microchip/mplab c30/bin/bin/../../lib\libc-coff.a(strlen.XXo)
 __c30_signature
                  0x00012c          0x6 c:/program files (x86)/microchip/mplab c30/bin/bin/../../lib\libc-coff.a(memcpy.XXo)
 __c30_signature
                  0x000132          0x6 c:/program files (x86)/microchip/mplab c30/bin/bin/../../lib\libc-coff.a(strcmp.XXo)
 __c30_signature
                  0x000138          0x6 c:/program files (x86)/microchip/mplab c30/bin/bin/../../lib\libc-coff.a(ctime.XXo)
 __c30_signature
                  0x00013e          0x6 c:/program files (x86)/microchip/mplab c30/bin/bin/../../lib\libc-coff.a(strftime.XXo)
 __c30_signature
                  0x000144          0x6 c:/program files (x86)/microchip/mplab c30/bin/bin/../../lib\libc-coff.a(strcpy.XXo)
 __c30_signature
                  0x00014a          0x6 c:/program files (x86)/microchip/mplab c30/bin/bin/../../lib\libc-coff.a(memcmp.XXo)
 __c30_signature
                  0x000150          0x6 c:/program files (x86)/microchip/mplab c30/bin/bin/../../lib\libc-coff.a(printf.XXo)
 __c30_signature
                  0x000156          0x6 c:/program files (x86)/microchip/mplab c30/bin/bin/../../lib\libc-coff.a(puts.XXo)
 __c30_signature
                  0x00015c          0x6 c:/program files (x86)/microchip/mplab c30/bin/bin/../../lib\libc-coff.a(strstr.XXo)
 __c30_signature
                  0x000162          0x6 c:/program files (x86)/microchip/mplab c30/bin/bin/../../lib\libc-coff.a(atoi.XXo)
 __c30_signature
                  0x000168          0x6 c:/program files (x86)/microchip/mplab c30/bin/bin/../../lib\libc-coff.a(mktime.XXo)
 __c30_signature
                  0x00016e          0x6 c:/program files (x86)/microchip/mplab c30/bin/bin/../../lib\libc-coff.a(strncpy.XXo)
 __c30_signature
                  0x000174          0x6 c:/program files (x86)/microchip/mplab c30/bin/bin/../../lib\libc-coff.a(_iob.XXo)
 __c30_signature
                  0x00017a          0x6 c:/program files (x86)/microchip/mplab c30/bin/bin/../../lib\libc-coff.a(fputc.XXo)
 __c30_signature
                  0x000180          0x6 c:/program files (x86)/microchip/mplab c30/bin/bin/../../lib\libc-coff.a(fflush.XXo)
 __c30_signature
                  0x000186          0x6 c:/program files (x86)/microchip/mplab c30/bin/bin/../../lib\libc-coff.a(strchr.XXo)
 __c30_signature
                  0x00018c          0x6 c:/program files (x86)/microchip/mplab c30/bin/bin/../../lib\libc-coff.a(sscanf_cdnopuxX.XXo)
 __c30_signature
                  0x000192          0x6 c:/program files (x86)/microchip/mplab c30/bin/bin/../../lib\libc-coff.a(atof.XXo)
 __c30_signature
                  0x000198          0x6 c:/program files (x86)/microchip/mplab c30/bin/bin/../../lib\libc-coff.a(sprintf_cdfFnopsuxX.XXo)
 __c30_signature
                  0x00019e          0x6 c:/program files (x86)/microchip/mplab c30/bin/bin/../../lib\libc-coff.a(doprnt.XXo)
 __c30_signature
                  0x0001a4          0x6 c:/program files (x86)/microchip/mplab c30/bin/bin/../../lib\libc-coff.a(strncmp.XXo)
 __c30_signature
                  0x0001aa          0x6 c:/program files (x86)/microchip/mplab c30/bin/bin/../../lib\libc-coff.a(flsbuf.XXo)
 __c30_signature
                  0x0001b0          0x6 c:/program files (x86)/microchip/mplab c30/bin/bin/../../lib\libc-coff.a(doscan_cdnopuxX.XXo)
 __c30_signature
                  0x0001b6          0x6 c:/program files (x86)/microchip/mplab c30/bin/bin/../../lib\libc-coff.a(doprnt_cdfFnopsuxX.XXo)
 __c30_signature
                  0x0001bc          0x6 c:/program files (x86)/microchip/mplab c30/bin/bin/../../lib\libc-coff.a(powers.XXo)
 __c30_signature
                  0x0001c2          0x6 c:/program files (x86)/microchip/mplab c30/bin/bin/../../lib\libc-coff.a(fgetc.XXo)
 __c30_signature
                  0x0001c8          0x6 c:/program files (x86)/microchip/mplab c30/bin/bin/../../lib\libc-coff.a(ungetc.XXo)
 __c30_signature
                  0x0001ce          0x6 c:/program files (x86)/microchip/mplab c30/bin/bin/../../lib\libc-coff.a(filbuf.XXo)
 __c30_signature
                  0x0001d4          0x6 c:/program files (x86)/microchip/mplab c30/bin/bin/../../lib\libm-coff.a(modsi3.o)
 __c30_signature
                  0x0001da          0x6 c:/program files (x86)/microchip/mplab c30/bin/bin/../../lib\libm-coff.a(mulsi3.o)
 __c30_signature
                  0x0001e0          0x6 c:/program files (x86)/microchip/mplab c30/bin/bin/../../lib\libm-coff.a(muldf3.o)
 __c30_signature
                  0x0001e6          0x6 c:/program files (x86)/microchip/mplab c30/bin/bin/../../lib\libm-coff.a(extendsfdf.o)
 __c30_signature
                  0x0001ec          0x6 c:/program files (x86)/microchip/mplab c30/bin/bin/../../lib\libm-coff.a(deqltle.o)
 __c30_signature
                  0x0001f2          0x6 c:/program files (x86)/microchip/mplab c30/bin/bin/../../lib\libm-coff.a(dne.o)
 __c30_signature
                  0x0001f8          0x6 c:/program files (x86)/microchip/mplab c30/bin/bin/../../lib\libm-coff.a(frexpf.o)
 __c30_signature
                  0x0001fe          0x6 c:/program files (x86)/microchip/mplab c30/bin/bin/../../lib\libm-coff.a(dgtge.o)
 __c30_signature
                  0x000204          0x6 c:/program files (x86)/microchip/mplab c30/bin/bin/../../lib\libm-coff.a(divdf3.o)
 __c30_signature
                  0x00020a          0x6 c:/program files (x86)/microchip/mplab c30/bin/bin/../../lib\libm-coff.a(fixunsdfsi.o)
 __c30_signature
                  0x000210          0x6 c:/program files (x86)/microchip/mplab c30/bin/bin/../../lib\libm-coff.a(floatsidf.o)
 __c30_signature
                  0x000216          0x6 c:/program files (x86)/microchip/mplab c30/bin/bin/../../lib\libm-coff.a(adddf3.o)
 __c30_signature
                  0x00021c          0x6 c:/program files (x86)/microchip/mplab c30/bin/bin/../../lib\libm-coff.a(subdf3.o)
 __c30_signature
                  0x000222          0x6 c:/program files (x86)/microchip/mplab c30/bin/bin/../../lib\libm-coff.a(fixunsdfdi.o)
 __c30_signature
                  0x000228          0x6 c:/program files (x86)/microchip/mplab c30/bin/bin/../../lib\libm-coff.a(floatdidf.o)
 __c30_signature
                  0x00022e          0x6 c:/program files (x86)/microchip/mplab c30/bin/bin/../../lib\libm-coff.a(dpack.o)
 __c30_signature
                  0x000234          0x6 c:/program files (x86)/microchip/mplab c30/bin/bin/../../lib\libm-coff.a(dcompare.o)
 __c30_signature
                  0x00023a          0x6 c:/program files (x86)/microchip/mplab c30/bin/bin/../../lib\libm-coff.a(_frexpf.o)
 __c30_signature
                  0x000240          0x6 c:/program files (x86)/microchip/mplab c30/bin/bin/../../lib\libm-coff.a(dtype.o)

.nbss               0x0800          0x2
 .nbss              0x0800          0x2 c:/program files (x86)/microchip/mplab c30/bin/bin/../../lib\libm-coff.a(errno.o)
                    0x0800                  errno

.bss                0x0802       0x252a
 .bss               0x0802       0x2122 Voter.o
                    0x084e                  IOExpOutB
                    0x084f                  IOExpOutA
                    0x0850                  myDHCPBindCount
                    0x0852                  altchange1
                    0x0854                  altchange
                    0x0856                  alttimer
                    0x0858                  altconnected
                    0x085a                  lastalthost
                    0x085c                  althost
                    0x085e                  altdns
                    0x0860                  hosttimedout
                    0x0862                  tone_fac
                    0x0866                  tone_v3
                    0x086a                  tone_v2
                    0x086e                  tone_v1
                    0x0872                  txaudio
                    0x2172                  cmdstr
                    0x21a4                  challenge
                    0x21ae                  their_challenge
                    0x21b8                  needburp
                    0x21ba                  repeatit
                    0x21bc                  dsecondtimer
                    0x21be                  hangtimer
                    0x21c0                  failtimer
                    0x21c2                  connfail
                    0x21c4                  connrep
                    0x21c6                  cwtimer1
                    0x21c8                  cwidx
                    0x21ca                  cwptr
                    0x21cc                  cwdat
                    0x21cd                  cwlen
                    0x21ce                  linkstate
                    0x21d0                  termbuftimer
                    0x21d2                  termbufidx
                    0x21d4                  telnet_echo
                    0x21d6                  gotbadmix
                    0x21d8                  netisup
                    0x21da                  apeaks
                    0x223e                  diag_option_flags
                    0x2240                  measstr
                    0x2242                  measidx
                    0x2244                  measp
                    0x2246                  errcnt
                    0x2247                  measretstate
                    0x2248                  diagstate
                    0x2249                  leddiag
                    0x224a                  indiag
                    0x224c                  testp
                    0x224e                  testidx
                    0x2250                  elketimer
                    0x2254                  txseqno
                    0x2258                  txseqno_ptt
                    0x225c                  host_txseqno
                    0x2260                  time_filled
                    0x2262                  dec_index
                    0x2264                  dec_valprev
                    0x2266                  dec_buffer
                    0x23a6                  enc_lastdelta
                    0x23a7                  enc_prev_index
                    0x23a8                  enc_prev_valprev
                    0x23aa                  enc_index
                    0x23ac                  enc_valprev
                    0x23ae                  indipsw
                    0x23b0                  indisplay
                    0x23b2                  apeak
                    0x23b4                  amin
                    0x23b6                  amax
                    0x23b8                  discounteru
                    0x23bc                  discounterl
                    0x23c0                  discfactor
                    0x23c4                  altdnsnotify
                    0x23c5                  dnsnotify
                    0x23c6                  sendgps
                    0x23c8                  mydigest
                    0x23cc                  resp_digest
                    0x23d0                  digest
                    0x23d4                  last_samplecnt
                    0x23d6                  real_time
                    0x23da                  last_index1
                    0x23dc                  last_index
                    0x23de                  last_adcsample
                    0x23e0                  samplecnt
                    0x23e2                  next_index
                    0x23e6                  next_time
                    0x23ea                  timing_index
                    0x23ec                  timing_time
                    0x23f0                  dnsdone
                    0x23f2                  dnstimer
                    0x23f4                  CurVoterAddr
                    0x23f8                  LastAltVoterAddr
                    0x23fc                  MyAltVoterAddr
                    0x2400                  LastVoterAddr
                    0x2404                  MyVoterAddr
                    0x2408                  inread
                    0x240a                  aborted
                    0x240c                  dwLastIP
                    0x2410                  udpServerNode
                    0x241a                  udpSocketUser
                    0x241c                  ppswarn
                    0x241e                  gpswarn
                    0x2420                  cwtimer
                    0x2422                  lastrxtimer
                    0x2426                  attempttimer
                    0x2428                  gpsforcetimer
                    0x242a                  ppstimer
                    0x242c                  gpstimer
                    0x2430                  host_ptt
                    0x2432                  ptt
                    0x2434                  lastrxtime
                    0x243c                  last_drainindex
                    0x243e                  txdrainindex
                    0x2440                  option_flags
                    0x2442                  lastcor
                    0x2444                  wascor
                    0x2446                  lastvnoise32
                    0x2452                  vnoise32
                    0x2456                  sql2
                    0x2458                  sqlcount
                    0x2459                  adcindex
                    0x245a                  adcothers
                    0x2460                  adcother
                    0x2462                  lockcnt
                    0x2464                  last_interval
                    0x2468                  ppscount
                    0x246a                  gps_time
                    0x246e                  gotpps
                    0x2470                  gpssync
                    0x2472                  gps_nsat
                    0x2473                  gps_state
                    0x2474                  TSIPwasdle
                    0x2475                  gps_bufindex
                    0x2476                  gps_buf
                    0x2516                  rssiheld
                    0x2517                  rssi
                    0x2518                  connected
                    0x251a                  audio_buf
                    0x2660                  filled
                    0x2662                  fillindex
                    0x2664                  filling_buffer
                    0x2666                  aliveCntrDec
                    0x2668                  aliveCntrMain
                    0x2669                  inputs2
                    0x266a                  inputs1
                    0x266c                  portasave
                    0x266e                  AN0String
                    0x2676                  AppConfig
                    0x282c                  system_time
                    0x2834                  dummy_loc
 .bss               0x2924        0x408 UART.o

.data               0x2d2c        0x160
 .data              0x2d2c        0x160 c:/program files (x86)/microchip/mplab c30/bin/bin/../../lib\libc-coff.a(powers.XXo)
                    0x2d2c                  _npowers_
                    0x2ddc                  _powers_

.dconst             0x2e8c        0x118
 .dconst            0x2e8c        0x118 c:/program files (x86)/microchip/mplab c30/bin/bin/../../lib\libc-coff.a(strftime.XXo)

.bss                0x2fa4         0xca
 .bss               0x2fa4         0xca TCP.o

.data               0x306e        0x140
 .data              0x306e         0xa0 c:/program files (x86)/microchip/mplab c30/bin/bin/../../lib\libc-coff.a(doprnt.XXo)
 .data              0x310e         0xa0 c:/program files (x86)/microchip/mplab c30/bin/bin/../../lib\libc-coff.a(doprnt_cdfFnopsuxX.XXo)

.bss                0x31ae        0x102
 .bss               0x31ae         0x98 UDP.o
                    0x31ae                  UDPRxCount
                    0x31b0                  UDPTxCount
                    0x31b2                  activeUDPSocket
                    0x31b4                  UDPSocketInfo
 .bss               0x3246         0x6a Telnet.o
                    0x3248                  TelnetState

.data               0x32b0         0x5a
 .data              0x32b0         0x5a c:/program files (x86)/microchip/mplab c30/bin/bin/../../lib\libc-coff.a(strftime.XXo)

.dconst             0x330a         0x3c
 .dconst            0x330a         0x3c c:/program files (x86)/microchip/mplab c30/bin/bin/../../lib\libc-coff.a(ctime.XXo)

.bss                0x3346         0xa2
 .bss               0x3346         0x3a DynDNS.o
                    0x3364                  DDNSClient
 .bss               0x3380         0x38 squelch.o
                    0x3380                  caldiode
                    0x3382                  noise_gain
                    0x3384                  write_eeprom_cali
                    0x3386                  sqled
                    0x3388                  cor
 .bss               0x33b8         0x30 c:/program files (x86)/microchip/mplab c30/bin/bin/../../lib\libc-coff.a(ctime.XXo)
                    0x33e6                  time_zone

.dconst             0x33e8         0x54
 .dconst            0x33e8         0x2a c:/program files (x86)/microchip/mplab c30/bin/bin/../../lib\libc-coff.a(doprnt.XXo)
 .dconst            0x3412         0x2a c:/program files (x86)/microchip/mplab c30/bin/bin/../../lib\libc-coff.a(doprnt_cdfFnopsuxX.XXo)

.bss                0x343c         0x4e
 .bss               0x343c         0x28 DHCP.o
 .bss               0x3464         0x26 SPIEEPROM.o

.data               0x348a         0x42
 .data              0x348a         0x26 c:/program files (x86)/microchip/mplab c30/bin/bin/../../lib\libc-coff.a(_iob.XXo)
                    0x348a                  _Files
                    0x348c                  _iob
 .data              0x34b0         0x1c DynDNS.o

.bss                0x34cc         0x6a
 .bss               0x34cc         0x1a c:/program files (x86)/microchip/mplab c30/bin/bin/../../lib\libc-coff.a(strftime.XXo)
 .bss               0x34e6         0x18 DNS.o
 .bss               0x34fe         0x16 ARP.o
 .bss               0x3514         0x14 ICMP.o
 .bss               0x3528          0xe StackTsk.o
                    0x352a                  remoteNode

.data               0x3536          0xc
 .data              0x3536          0xc c:/program files (x86)/microchip/mplab c30/bin/bin/../../lib\libc-coff.a(ctime.XXo)
                    0x3536                  moninit

.bss                0x3542         0x18
 .bss               0x3542          0xa Tick.o
 .bss               0x354c          0x8 ENC28J60.o
 .bss               0x3554          0x6 c:/program files (x86)/microchip/mplab c30/bin/bin/../../lib\libc-coff.a(_iob.XXo)
                    0x3554                  _sobuf
                    0x3556                  _sibuf
                    0x3558                  _outdone

.data               0x355a          0x8
 .data              0x355a          0x4 DNS.o
 .data              0x355e          0x4 Helpers.o

.bss                0x3562          0x4
 .bss               0x3562          0x4 IP.o

.data               0x3566          0x2
 .data              0x3566          0x2 DHCP.o
                    0x3566                  DHCPClientInitializedOnce

.pbss               0x3568          0x2
 .pbss              0x3568          0x2 DNS.o

.data               0x356a          0x2
 .data              0x356a          0x2 UDP.o

.pbss               0x356c          0x2
 .pbss              0x356c          0x2 UDP.o

.data               0x356e          0x2
 .data              0x356e          0x2 TCP.o

.pbss               0x3570          0x2
 .pbss              0x3570          0x2 TCP.o

.bss                0x3572          0x2
 .bss               0x3572          0x2 c:/program files (x86)/microchip/mplab c30/bin/bin/../../lib\libc-coff.a(doscan_cdnopuxX.XXo)

.const              0xa3b0       0x3450 load address 0x0123b0  
 .const             0xa3b0       0x31dc Voter.o
                    0xa3b0                  ulawtabletx
                    0xa5b0                  exp_lut
                    0xa6b0                  VERSION
                    0xa6c1                  hosttmomsg
                    0xa6e1                  badmix
                    0xa720                  newvalnotchanged
                    0xa742                  newvalerror
                    0xa764                  saved
                    0xa78e                  newvalchanged
                    0xa7aa                  entnewval
                    0xa7bd                  gpsmsg9
                    0xa7d2                  gpsmsg8
                    0xa801                  gpsmsg7
                    0xa82a                  gpsmsg6
                    0xa859                  gpsmsg5
                    0xa87a                  gpsmsg3
                    0xa899                  gpsmsg2
                    0xa8ce                  gpsmsg1
 .const             0xd58c        0x1a0 DynDNS.o
                    0xd5ca                  ddnsServiceHosts
 .const             0xd72c         0xc8 Telnet.o
 .const             0xd7f4          0xc TCP.o
                    0xd7f4                  TCPSocketInitializer

.text             0x006c48       0x9e94
 .text            0x006c48       0x4a74 Voter.o
                  0x006e50                  _CNInterrupt
                  0x007092                  _ADC1Interrupt
                  0x00745c                  _DAC1LInterrupt
                  0x00764e                  _DefaultInterrupt
                  0x007660                  _OscillatorFail
                  0x007672                  _AddressError
                  0x007678                  _StackError
                  0x00767e                  _MathError
                  0x007690                  HasCOR
                  0x0076ae                  HasCTCSS
                  0x0076de                  SetCTCSSTone
                  0x007776                  SetTxTone
                  0x00789e                  GetBootCS
                  0x0078b4                  htons
                  0x0078c8                  ntohs
                  0x0078dc                  htonl
                  0x0078fa                  ntohl
                  0x007918                  getGPSStr
                  0x007958                  getTSIPPacket
                  0x007a20                  adpcm_decoder
                  0x007b10                  read
                  0x007b50                  SaveAppConfig
                  0x007e2a                  IOExp_Write
                  0x007e9a                  SetAudioSrc
                  0x007efc                  process_udp
                  0x0085c0                  main_processing_loop
                  0x0088ce                  write
                  0x008942                  process_gps
                  0x008f30                  SetPTT
                  0x008f50                  ToggleLED
                  0x008f68                  SetLED
                  0x008f8c                  IOExpInit
                  0x008fb2                  IOExp_Read
                  0x009024                  secondary_processing_loop
                  0x009f02                  myfgets
                  0x00a4ec                  main
 .text            0x00b6bc       0x1c9c TCP.o
                  0x00b6f6                  TCPWasReset
                  0x00b708                  TCPIsConnected
                  0x00b71a                  TCPIsPutReady
                  0x00b748                  TCPGetTxFIFOFull
                  0x00b762                  TCPIsGetReady
                  0x00b77e                  TCPGetRxFIFOFree
                  0x00b936                  TCPGetRemoteInfo
                  0x00b94a                  TCPInit
                  0x00bcee                  TCPAdjustFIFOSize
                  0x00bdce                  TCPDiscard
                  0x00bdea                  TCPFlush
                  0x00be00                  TCPDisconnect
                  0x00be76                  TCPClose
                  0x00be88                  TCPOpen
                  0x00bfa0                  TCPProcess
                  0x00c7ce                  TCPTick
                  0x00cb08                  TCPFindArrayEx
                  0x00d0a4                  TCPFindEx
                  0x00d0b8                  TCPPeekArray
                  0x00d122                  TCPPeek
                  0x00d134                  TCPGetArray
                  0x00d1b8                  TCPGet
                  0x00d218                  TCPPutArray
                  0x00d2bc                  TCPPutString
                  0x00d2d4                  TCPPut
 .text            0x00d358        0xd04 ENC28J60.o
                  0x00d358                  MACGet
                  0x00d388                  MACGetArray
                  0x00d432                  MACPut
                  0x00d46c                  MACPutArray
                  0x00d5ae                  MACSetReadPtrInRx
                  0x00d5d0                  MACPutHeader
                  0x00d65e                  MACDiscardRx
                  0x00d6e2                  SetCLKOUT
                  0x00d6f8                  WritePHYReg
                  0x00d730                  ReadPHYReg
                  0x00d78e                  MACIsLinked
                  0x00d7a0                  MACBurp
                  0x00d7e2                  GetCLKOUT
                  0x00d7fe                  MACPowerUp
                  0x00d81c                  MACPowerDown
                  0x00d846                  MACIsMemCopyDone
                  0x00d85c                  MACMemCopyAsync
                  0x00da54                  CalcIPBufferChecksum
                  0x00db88                  MACCalcRxChecksum
                  0x00dbe4                  MACSetReadPtr
                  0x00dc1e                  MACSetWritePtr
                  0x00dc58                  MACFlush
                  0x00ddda                  MACGetHeader
                  0x00de78                  MACGetFreeRxSize
                  0x00defe                  MACIsTxReady
                  0x00df14                  MACInit
 .text            0x00e05c        0xacc DynDNS.o
                  0x00e05c                  DDNSInit
                  0x00e092                  DDNSTask
                  0x00eaf8                  DDNSForceUpdate
                  0x00eb08                  DDNSSetService
                  0x00eb1c                  DDNSGetLastIP
                  0x00eb24                  DDNSGetLastStatus
 .text            0x00eb28        0xa3a Helpers.o
                  0x00eb28                  LFSRRand
                  0x00ed1e                  LFSRSeedRand
                  0x00ed58                  GenerateRandomDWORD
                  0x00ee04                  StringToIPAddress
                  0x00eeb2                  Base64Encode
                  0x00f054                  uitoa
                  0x00f0f6                  hexatob
                  0x00f15c                  btohexa_high
                  0x00f170                  btohexa_low
                  0x00f182                  stricmppgm2ram
                  0x00f1d0                  swaps
                  0x00f1e2                  swapl
                  0x00f210                  CalcIPChecksum
                  0x00f2d2                  strupr
                  0x00f2f2                  FormatNetBIOSName
                  0x00f41c                  strnchr
 .text            0x00f562        0x702 DHCP.o
                  0x00f562                  DHCPInit
                  0x00f58e                  DHCPDisable
                  0x00f5a4                  DHCPEnable
                  0x00f5b4                  DHCPIsEnabled
                  0x00f5be                  DHCPIsBound
                  0x00f5c4                  DHCPStateChanged
                  0x00f5d4                  DHCPIsServerDetected
                  0x00f9d6                  DHCPTask
 .text            0x00fc64        0x50a UDP.o
                  0x00fc64                  UDPClose
                  0x00fc7c                  UDPInit
                  0x00fcaa                  UDPTask
                  0x00fcb0                  UDPOpen
                  0x00fd7a                  UDPSetTxBuffer
                  0x00fd8a                  UDPSetRxBuffer
                  0x00fd98                  UDPIsPutReady
                  0x00fdbe                  UDPPut
                  0x00fde4                  UDPPutArray
                  0x00fe0e                  UDPPutString
                  0x00fe22                  UDPFlush
                  0x00fecc                  UDPIsGetReady
                  0x00fef0                  UDPGet
                  0x00ff1a                  UDPGetArray
                  0x00ff48                  UDPDiscard
                  0x00ff62                  UDPProcess
 .text            0x01016e        0x504 DNS.o
                  0x01016e                  DNSBeginUsage
                  0x010182                  DNSEndUsage
                  0x0101a2                  DNSResolve
                  0x01025e                  DNSIsResolved
 .text            0x010672        0x46a UART.o
                  0x010672                  _U1RXInterrupt
                  0x0106d0                  _U1TXInterrupt
                  0x0106fe                  _U2RXInterrupt
                  0x01075c                  _U2TXInterrupt
                  0x010788                  InitUARTS
                  0x0107cc                  DataRdyUART
                  0x0107e2                  ReadUART
                  0x0107f6                  ReadStringUART
                  0x010828                  WriteUART
                  0x010858                  putsUART
                  0x01086e                  putrsUART
                  0x010884                  getsUART
                  0x010954                  BusyUART
                  0x01096e                  WriteUART2
                  0x01099c                  putsUART2
                  0x0109b2                  putrsUART2
                  0x0109c8                  DataRdyUART2
                  0x0109de                  ReadUART2
                  0x0109f2                  getsUART2
                  0x010ac2                  BusyUART2

.dinit            0x010adc        0x440
 .dinit           0x010adc        0x440 data_init

.text             0x010f1c       0x130e
 .text            0x010f1c        0x344 squelch.o
                  0x010f1c                  set_atten
                  0x010f66                  init_squelch
                  0x010f98                  service_squelch
 .text            0x011260        0x2ec SPIEEPROM.o
                  0x011260                  XEEInit
                  0x011278                  XEEBeginRead
                  0x011282                  XEEEndRead
                  0x011284                  XEEBeginWrite
                  0x01128e                  XEEReadArray
                  0x01132a                  XEERead
                  0x011362                  XEEIsBusy
                  0x01148e                  XEEEndWrite
                  0x011498                  XEEWrite
                  0x0114b8                  XEEWriteArray
 .text            0x01154c        0x2be Telnet.o
                  0x01154c                  TelnetTask
                  0x011702                  GetTelnetConsole
                  0x01172e                  PutTelnetConsole
                  0x01179a                  ProcessTelnetTimer
                  0x0117ea                  CloseTelnetConsole
 .text            0x01180a        0x294 ARP.o
                  0x01180a                  ARPInit
                  0x011836                  ARPIsResolved
                  0x0118d4                  SwapARPPacket
                  0x011950                  ARPResolve
                  0x0119de                  ARPProcess
 .text            0x011a9e        0x1e4 ICMP.o
                  0x011a9e                  ICMPProcess
                  0x011b42                  ICMPSendPing
                  0x011b5c                  ICMPSendPingToHost
                  0x011b76                  ICMPGetReply
                  0x011c68                  ICMPBeginUsage
                  0x011c7c                  ICMPEndUsage
 .text            0x011c82        0x1d8 Delay.o
                  0x011c82                  Delay10us
                  0x011cae                  DelayMs
 .text            0x011e5a        0x17a StackTsk.o
                  0x011e5a                  StackInit
                  0x011e84                  StackTask
                  0x011fd0                  StackApplications
 .text            0x011fd4        0x12a IP.o
                  0x011fd4                  IPSetRxBuffer
                  0x011ff6                  IPPutHeader
                  0x01207e                  IPGetHeader
 .text            0x0120fe         0xde Tick.o
                  0x0120fe                  TickInit
                  0x012166                  TickGet
                  0x01216e                  TickGetDiv256
                  0x012192                  TickGetDiv64K
                  0x0121b6                  TickConvertToMilliseconds
                  0x0121c8                  _T1Interrupt
 .text            0x0121dc         0x4e doubleify.o
                  0x0121dc                  doubleify
